00401000   55               PUSH EBP
00401001   8BEC             MOV EBP,ESP
00401003   83EC 34          SUB ESP,34
00401006   C745 E8 670A0000 MOV DWORD PTR SS:[EBP-18],0A67
0040100D   C745 EC 7070696E MOV DWORD PTR SS:[EBP-14],6E697070
00401014   C745 F0 72747269 MOV DWORD PTR SS:[EBP-10],69727472
0040101B   C745 F4 706F7765 MOV DWORD PTR SS:[EBP-C],65776F70
00401022   68 30704000      PUSH app5win.00407030                    ; ASCII "Please enter the password:"
00401027   E8 7C010000      CALL app5win.004011A8
0040102C   83C4 04          ADD ESP,4
0040102F   6A 10            PUSH 10
00401031   6A 00            PUSH 0
00401033   8D45 CC          LEA EAX,DWORD PTR SS:[EBP-34]
00401036   50               PUSH EAX
00401037   E8 14010000      CALL app5win.00401150
0040103C   83C4 0C          ADD ESP,0C
0040103F   C745 E4 00000000 MOV DWORD PTR SS:[EBP-1C],0
00401046   C745 E0 00000000 MOV DWORD PTR SS:[EBP-20],0
0040104D   C745 DC 00000000 MOV DWORD PTR SS:[EBP-24],0
00401054   E8 E7000000      /CALL app5win.00401140
00401059   8845 FC          |MOV BYTE PTR SS:[EBP-4],AL
0040105C   8B4D E4          |MOV ECX,DWORD PTR SS:[EBP-1C]
0040105F   8A55 FC          |MOV DL,BYTE PTR SS:[EBP-4]
00401062   88540D CC        |MOV BYTE PTR SS:[EBP+ECX-34],DL
00401066   8B45 E4          |MOV EAX,DWORD PTR SS:[EBP-1C]
00401069   83C0 01          |ADD EAX,1
0040106C   8945 E4          |MOV DWORD PTR SS:[EBP-1C],EAX
0040106F   0FBE4D FC        |MOVSX ECX,BYTE PTR SS:[EBP-4]
00401073   83F9 0A          |CMP ECX,0A
00401076   74 0E            JE SHORT app5win.00401086
00401078   0FBE55 FC        MOVSX EDX,BYTE PTR SS:[EBP-4]
0040107C   85D2             |TEST EDX,EDX
0040107E   74 06            JE SHORT app5win.00401086
00401080   837D E4 10       |CMP DWORD PTR SS:[EBP-1C],10
00401084  ^72 CE            \JB SHORT app5win.00401054
00401086   8D45 CC          LEA EAX,DWORD PTR SS:[EBP-34]
00401089   8945 F8          MOV DWORD PTR SS:[EBP-8],EAX
0040108C   C745 E0 00000000 MOV DWORD PTR SS:[EBP-20],0
00401093   C745 DC 03000000 MOV DWORD PTR SS:[EBP-24],3
0040109A   EB 12            JMP SHORT app5win.004010AE
0040109C   8B4D E0          /MOV ECX,DWORD PTR SS:[EBP-20]
0040109F   83C1 04          |ADD ECX,4
004010A2   894D E0          |MOV DWORD PTR SS:[EBP-20],ECX
004010A5   8B55 DC          |MOV EDX,DWORD PTR SS:[EBP-24]
004010A8   83EA 01          |SUB EDX,1
004010AB   8955 DC          |MOV DWORD PTR SS:[EBP-24],EDX
004010AE   837D E0 0D        CMP DWORD PTR SS:[EBP-20],0D
004010B2   73 28            JNB SHORT app5win.004010DC
004010B4   8B45 E0          |MOV EAX,DWORD PTR SS:[EBP-20]
004010B7   C1E8 02          |SHR EAX,2
004010BA   8B4D F8          |MOV ECX,DWORD PTR SS:[EBP-8]
004010BD   8B55 DC          |MOV EDX,DWORD PTR SS:[EBP-24]
004010C0   8B0481           |MOV EAX,DWORD PTR DS:[ECX+EAX*4]
004010C3   3B4495 E8        |CMP EAX,DWORD PTR SS:[EBP+EDX*4-18]
004010C7   74 11            JE SHORT app5win.004010DA
004010C9   90               NOP
004010CA   90               NOP
004010CB   90               NOP
004010CC   90               NOP
004010CD   90               NOP
004010CE   90               NOP
004010CF   90               NOP
004010D0   90               NOP
004010D1   90               NOP
004010D2   90               NOP
004010D3   90               NOP
004010D4   90               NOP
004010D5   90               NOP
004010D6   90               NOP
004010D7   90               NOP
004010D8   EB 15            |JMP SHORT app5win.004010EF
004010DA  ^EB C0            \JMP SHORT app5win.0040109C
004010DC   8D4D CC          LEA ECX,DWORD PTR SS:[EBP-34]
004010DF   51               PUSH ECX
004010E0   68 60704000      PUSH app5win.00407060                    ; ASCII "The password is %s
"
004010E5   E8 09000000      CALL app5win.004010F3
004010EA   83C4 08          ADD ESP,8
004010ED   33C0             XOR EAX,EAX
004010EF   8BE5             MOV ESP,EBP
004010F1   5D               POP EBP
004010F2   C3               RETN
004010F3   53               PUSH EBX
004010F4   56               PUSH ESI
004010F5   BE A8704000      MOV ESI,app5win.004070A8
004010FA   57               PUSH EDI
004010FB   56               PUSH ESI
004010FC   6A 01            PUSH 1
004010FE   E8 41030000      CALL app5win.00401444
00401103   56               PUSH ESI
00401104   E8 B0030000      CALL app5win.004014B9
00401109   8BF8             MOV EDI,EAX
0040110B   8D4424 20        LEA EAX,DWORD PTR SS:[ESP+20]
0040110F   50               PUSH EAX
00401110   FF7424 20        PUSH DWORD PTR SS:[ESP+20]
00401114   56               PUSH ESI
00401115   E8 56040000      CALL app5win.00401570
0040111A   56               PUSH ESI
0040111B   57               PUSH EDI
0040111C   8BD8             MOV EBX,EAX
0040111E   E8 23040000      CALL app5win.00401546
00401123   56               PUSH ESI
00401124   6A 01            PUSH 1
00401126   E8 6B030000      CALL app5win.00401496
0040112B   83C4 28          ADD ESP,28
0040112E   8BC3             MOV EAX,EBX
00401130   5F               POP EDI
00401131   5E               POP ESI
00401132   5B               POP EBX
00401133   C3               RETN
00401134   68 88704000      PUSH app5win.00407088
00401139   E8 6D0C0000      CALL app5win.00401DAB
0040113E   59               POP ECX
0040113F   C3               RETN
00401140  ^E9 EFFFFFFF      JMP app5win.00401134
00401145   CC               INT3
00401146   CC               INT3
00401147   CC               INT3
00401148   CC               INT3
00401149   CC               INT3
0040114A   CC               INT3
0040114B   CC               INT3
0040114C   CC               INT3
0040114D   CC               INT3
0040114E   CC               INT3
0040114F   CC               INT3
00401150   8B5424 0C        MOV EDX,DWORD PTR SS:[ESP+C]
00401154   8B4C24 04        MOV ECX,DWORD PTR SS:[ESP+4]
00401158   85D2             TEST EDX,EDX
0040115A   74 47            JE SHORT app5win.004011A3
0040115C   33C0             XOR EAX,EAX
0040115E   8A4424 08        MOV AL,BYTE PTR SS:[ESP+8]
00401162   57               PUSH EDI
00401163   8BF9             MOV EDI,ECX
00401165   83FA 04          CMP EDX,4
00401168   72 2D            JB SHORT app5win.00401197
0040116A   F7D9             NEG ECX
0040116C   83E1 03          AND ECX,3
0040116F   74 08            JE SHORT app5win.00401179
00401171   2BD1             SUB EDX,ECX
00401173   8807             /MOV BYTE PTR DS:[EDI],AL
00401175   47               |INC EDI
00401176   49               |DEC ECX
00401177  ^75 FA            \JNZ SHORT app5win.00401173
00401179   8BC8             MOV ECX,EAX
0040117B   C1E0 08          SHL EAX,8
0040117E   03C1             ADD EAX,ECX
00401180   8BC8             MOV ECX,EAX
00401182   C1E0 10          SHL EAX,10
00401185   03C1             ADD EAX,ECX
00401187   8BCA             MOV ECX,EDX
00401189   83E2 03          AND EDX,3
0040118C   C1E9 02          SHR ECX,2
0040118F   74 06            JE SHORT app5win.00401197
00401191   F3:AB            REP STOS DWORD PTR ES:[EDI]
00401193   85D2             TEST EDX,EDX
00401195   74 06            JE SHORT app5win.0040119D
00401197   8807             /MOV BYTE PTR DS:[EDI],AL
00401199   47               |INC EDI
0040119A   4A               |DEC EDX
0040119B  ^75 FA            \JNZ SHORT app5win.00401197
0040119D   8B4424 08        MOV EAX,DWORD PTR SS:[ESP+8]
004011A1   5F               POP EDI
004011A2   C3               RETN
004011A3   8B4424 04        MOV EAX,DWORD PTR SS:[ESP+4]
004011A7   C3               RETN
004011A8   53               PUSH EBX
004011A9   55               PUSH EBP
004011AA   56               PUSH ESI
004011AB   BE A8704000      MOV ESI,app5win.004070A8
004011B0   57               PUSH EDI
004011B1   56               PUSH ESI
004011B2   6A 01            PUSH 1
004011B4   83CB FF          OR EBX,FFFFFFFF
004011B7   E8 88020000      CALL app5win.00401444
004011BC   56               PUSH ESI
004011BD   E8 F7020000      CALL app5win.004014B9
004011C2   FF7424 20        PUSH DWORD PTR SS:[ESP+20]
004011C6   8BE8             MOV EBP,EAX
004011C8   E8 130E0000      CALL app5win.00401FE0
004011CD   8BF8             MOV EDI,EAX
004011CF   56               PUSH ESI
004011D0   57               PUSH EDI
004011D1   6A 01            PUSH 1
004011D3   FF7424 30        PUSH DWORD PTR SS:[ESP+30]
004011D7   E8 F20C0000      CALL app5win.00401ECE
004011DC   83C4 20          ADD ESP,20
004011DF   3BC7             CMP EAX,EDI
004011E1   75 24            JNZ SHORT app5win.00401207
004011E3   FF0D AC704000    DEC DWORD PTR DS:[4070AC]
004011E9   78 10            JS SHORT app5win.004011FB
004011EB   A1 A8704000      MOV EAX,DWORD PTR DS:[4070A8]
004011F0   C600 0A          MOV BYTE PTR DS:[EAX],0A
004011F3   FF05 A8704000    INC DWORD PTR DS:[4070A8]
004011F9   EB 0A            JMP SHORT app5win.00401205
004011FB   56               PUSH ESI
004011FC   6A 0A            PUSH 0A
004011FE   E8 B30B0000      CALL app5win.00401DB6
00401203   59               POP ECX
00401204   59               POP ECX
00401205   33DB             XOR EBX,EBX
00401207   56               PUSH ESI
00401208   55               PUSH EBP
00401209   E8 38030000      CALL app5win.00401546
0040120E   56               PUSH ESI
0040120F   6A 01            PUSH 1
00401211   E8 80020000      CALL app5win.00401496
00401216   83C4 10          ADD ESP,10
00401219   8BC3             MOV EAX,EBX
0040121B   5F               POP EDI
0040121C   5E               POP ESI
0040121D   5D               POP EBP
0040121E   5B               POP EBX
0040121F   C3               RETN
00401220 > 55               PUSH EBP
00401221   8BEC             MOV EBP,ESP
00401223   6A FF            PUSH -1
00401225   68 D8604000      PUSH app5win.004060D8
0040122A   68 EC2A4000      PUSH app5win.00402AEC                    ; SE handler installation
0040122F   64:A1 00000000   MOV EAX,DWORD PTR FS:[0]
00401235   50               PUSH EAX
00401236   64:8925 00000000 MOV DWORD PTR FS:[0],ESP
0040123D   83EC 10          SUB ESP,10
00401240   53               PUSH EBX
00401241   56               PUSH ESI
00401242   57               PUSH EDI
00401243   8965 E8          MOV DWORD PTR SS:[EBP-18],ESP
00401246   FF15 04604000    CALL DWORD PTR DS:[<&KERNEL32.GetVersion>; kernel32.GetVersion
0040124C   33D2             XOR EDX,EDX
0040124E   8AD4             MOV DL,AH
00401250   8915 387D4000    MOV DWORD PTR DS:[407D38],EDX
00401256   8BC8             MOV ECX,EAX
00401258   81E1 FF000000    AND ECX,0FF
0040125E   890D 347D4000    MOV DWORD PTR DS:[407D34],ECX
00401264   C1E1 08          SHL ECX,8
00401267   03CA             ADD ECX,EDX
00401269   890D 307D4000    MOV DWORD PTR DS:[407D30],ECX
0040126F   C1E8 10          SHR EAX,10
00401272   A3 2C7D4000      MOV DWORD PTR DS:[407D2C],EAX
00401277   6A 01            PUSH 1
00401279   E8 37170000      CALL app5win.004029B5
0040127E   59               POP ECX
0040127F   85C0             TEST EAX,EAX
00401281   75 08            JNZ SHORT app5win.0040128B
00401283   6A 1C            PUSH 1C
00401285   E8 AB000000      CALL app5win.00401335
0040128A   59               POP ECX
0040128B   E8 57160000      CALL app5win.004028E7
00401290   85C0             TEST EAX,EAX
00401292   75 08            JNZ SHORT app5win.0040129C
00401294   6A 10            PUSH 10
00401296   E8 9A000000      CALL app5win.00401335
0040129B   59               POP ECX
0040129C   8365 FC 00       AND DWORD PTR SS:[EBP-4],0
004012A0   E8 86140000      CALL app5win.0040272B
004012A5   FF15 00604000    CALL DWORD PTR DS:[<&KERNEL32.GetCommand>; kernel32.GetCommandLineA
004012AB   A3 E4934000      MOV DWORD PTR DS:[4093E4],EAX
004012B0   E8 44130000      CALL app5win.004025F9
004012B5   A3 107D4000      MOV DWORD PTR DS:[407D10],EAX
004012BA   E8 ED100000      CALL app5win.004023AC
004012BF   E8 2F100000      CALL app5win.004022F3
004012C4   E8 920D0000      CALL app5win.0040205B
004012C9   A1 487D4000      MOV EAX,DWORD PTR DS:[407D48]
004012CE   A3 4C7D4000      MOV DWORD PTR DS:[407D4C],EAX
004012D3   50               PUSH EAX
004012D4   FF35 407D4000    PUSH DWORD PTR DS:[407D40]
004012DA   FF35 3C7D4000    PUSH DWORD PTR DS:[407D3C]
004012E0   E8 1BFDFFFF      CALL app5win.00401000
004012E5   83C4 0C          ADD ESP,0C
004012E8   8945 E4          MOV DWORD PTR SS:[EBP-1C],EAX
004012EB   50               PUSH EAX
004012EC   E8 970D0000      CALL app5win.00402088
004012F1   8B45 EC          MOV EAX,DWORD PTR SS:[EBP-14]
004012F4   8B08             MOV ECX,DWORD PTR DS:[EAX]
004012F6   8B09             MOV ECX,DWORD PTR DS:[ECX]
004012F8   894D E0          MOV DWORD PTR SS:[EBP-20],ECX
004012FB   50               PUSH EAX
004012FC   51               PUSH ECX
004012FD   E8 790E0000      CALL app5win.0040217B
00401302   59               POP ECX
00401303   59               POP ECX
00401304   C3               RETN
00401305   8B65 E8          MOV ESP,DWORD PTR SS:[EBP-18]
00401308   FF75 E0          PUSH DWORD PTR SS:[EBP-20]
0040130B   E8 890D0000      CALL app5win.00402099
00401310   833D 187D4000 02 CMP DWORD PTR DS:[407D18],2
00401317   74 05            JE SHORT app5win.0040131E
00401319   E8 A6180000      CALL app5win.00402BC4
0040131E   FF7424 04        PUSH DWORD PTR SS:[ESP+4]
00401322   E8 D6180000      CALL app5win.00402BFD
00401327   68 FF000000      PUSH 0FF
0040132C   FF15 80704000    CALL DWORD PTR DS:[407080]               ; app5win.00402099
00401332   59               POP ECX
00401333   59               POP ECX
00401334   C3               RETN
00401335   833D 187D4000 02 CMP DWORD PTR DS:[407D18],2
0040133C   74 05            JE SHORT app5win.00401343
0040133E   E8 81180000      CALL app5win.00402BC4
00401343   FF7424 04        PUSH DWORD PTR SS:[ESP+4]
00401347   E8 B1180000      CALL app5win.00402BFD
0040134C   59               POP ECX
0040134D   68 FF000000      PUSH 0FF
00401352   FF15 08604000    CALL DWORD PTR DS:[<&KERNEL32.ExitProces>; kernel32.ExitProcess
00401358   C3               RETN
00401359   A1 E0934000      MOV EAX,DWORD PTR DS:[4093E0]
0040135E   56               PUSH ESI
0040135F   6A 14            PUSH 14
00401361   85C0             TEST EAX,EAX
00401363   5E               POP ESI
00401364   75 07            JNZ SHORT app5win.0040136D
00401366   B8 00020000      MOV EAX,200
0040136B   EB 06            JMP SHORT app5win.00401373
0040136D   3BC6             CMP EAX,ESI
0040136F   7D 07            JGE SHORT app5win.00401378
00401371   8BC6             MOV EAX,ESI
00401373   A3 E0934000      MOV DWORD PTR DS:[4093E0],EAX
00401378   6A 04            PUSH 4
0040137A   50               PUSH EAX
0040137B   E8 D0190000      CALL app5win.00402D50
00401380   59               POP ECX
00401381   A3 D8834000      MOV DWORD PTR DS:[4083D8],EAX
00401386   85C0             TEST EAX,EAX
00401388   59               POP ECX
00401389   75 21            JNZ SHORT app5win.004013AC
0040138B   6A 04            PUSH 4
0040138D   56               PUSH ESI
0040138E   8935 E0934000    MOV DWORD PTR DS:[4093E0],ESI
00401394   E8 B7190000      CALL app5win.00402D50
00401399   59               POP ECX
0040139A   A3 D8834000      MOV DWORD PTR DS:[4083D8],EAX
0040139F   85C0             TEST EAX,EAX
004013A1   59               POP ECX
004013A2   75 08            JNZ SHORT app5win.004013AC
004013A4   6A 1A            PUSH 1A
004013A6   E8 65FFFFFF      CALL app5win.00401310
004013AB   59               POP ECX
004013AC   33C9             XOR ECX,ECX
004013AE   B8 88704000      MOV EAX,app5win.00407088
004013B3   8B15 D8834000    MOV EDX,DWORD PTR DS:[4083D8]
004013B9   890411           MOV DWORD PTR DS:[ECX+EDX],EAX
004013BC   83C0 20          ADD EAX,20
004013BF   83C1 04          ADD ECX,4
004013C2   3D 08734000      CMP EAX,app5win.00407308
004013C7  ^7C EA            JL SHORT app5win.004013B3
004013C9   33C9             XOR ECX,ECX
004013CB   BA 98704000      MOV EDX,app5win.00407098
004013D0   8BF1             MOV ESI,ECX
004013D2   8BC1             MOV EAX,ECX
004013D4   C1FE 05          SAR ESI,5
004013D7   83E0 1F          AND EAX,1F
004013DA   8B34B5 C0824000  MOV ESI,DWORD PTR DS:[ESI*4+4082C0]
004013E1   8D04C0           LEA EAX,DWORD PTR DS:[EAX+EAX*8]
004013E4   8B0486           MOV EAX,DWORD PTR DS:[ESI+EAX*4]
004013E7   83F8 FF          CMP EAX,-1
004013EA   74 04            JE SHORT app5win.004013F0
004013EC   85C0             TEST EAX,EAX
004013EE   75 03            JNZ SHORT app5win.004013F3
004013F0   830A FF          OR DWORD PTR DS:[EDX],FFFFFFFF
004013F3   83C2 20          ADD EDX,20
004013F6   41               INC ECX
004013F7   81FA F8704000    CMP EDX,app5win.004070F8
004013FD  ^7C D1            JL SHORT app5win.004013D0
004013FF   5E               POP ESI
00401400   C3               RETN
00401401   E8 E21A0000      CALL app5win.00402EE8
00401406   803D 607D4000 00 CMP BYTE PTR DS:[407D60],0
0040140D   74 05            JE SHORT app5win.00401414
0040140F   E9 C9190000      JMP app5win.00402DDD
00401414   C3               RETN
00401415   8B4424 04        MOV EAX,DWORD PTR SS:[ESP+4]
00401419   B9 88704000      MOV ECX,app5win.00407088
0040141E   3BC1             CMP EAX,ECX
00401420   72 17            JB SHORT app5win.00401439
00401422   3D E8724000      CMP EAX,app5win.004072E8
00401427   77 10            JA SHORT app5win.00401439
00401429   2BC1             SUB EAX,ECX
0040142B   C1F8 05          SAR EAX,5
0040142E   83C0 1C          ADD EAX,1C
00401431   50               PUSH EAX
00401432   E8 871B0000      CALL app5win.00402FBE
00401437   59               POP ECX
00401438   C3               RETN
00401439   83C0 20          ADD EAX,20
0040143C   50               PUSH EAX
0040143D   FF15 0C604000    CALL DWORD PTR DS:[<&KERNEL32.EnterCriti>; ntdll.RtlEnterCriticalSection
00401443   C3               RETN
00401444   8B4424 04        MOV EAX,DWORD PTR SS:[ESP+4]
00401448   83F8 14          CMP EAX,14
0040144B   7D 0B            JGE SHORT app5win.00401458
0040144D   83C0 1C          ADD EAX,1C
00401450   50               PUSH EAX
00401451   E8 681B0000      CALL app5win.00402FBE
00401456   59               POP ECX
00401457   C3               RETN
00401458   8B4424 08        MOV EAX,DWORD PTR SS:[ESP+8]
0040145C   83C0 20          ADD EAX,20
0040145F   50               PUSH EAX
00401460   FF15 0C604000    CALL DWORD PTR DS:[<&KERNEL32.EnterCriti>; ntdll.RtlEnterCriticalSection
00401466   C3               RETN
00401467   8B4424 04        MOV EAX,DWORD PTR SS:[ESP+4]
0040146B   B9 88704000      MOV ECX,app5win.00407088
00401470   3BC1             CMP EAX,ECX
00401472   72 17            JB SHORT app5win.0040148B
00401474   3D E8724000      CMP EAX,app5win.004072E8
00401479   77 10            JA SHORT app5win.0040148B
0040147B   2BC1             SUB EAX,ECX
0040147D   C1F8 05          SAR EAX,5
00401480   83C0 1C          ADD EAX,1C
00401483   50               PUSH EAX
00401484   E8 961B0000      CALL app5win.0040301F
00401489   59               POP ECX
0040148A   C3               RETN
0040148B   83C0 20          ADD EAX,20
0040148E   50               PUSH EAX
0040148F   FF15 10604000    CALL DWORD PTR DS:[<&KERNEL32.LeaveCriti>; ntdll.RtlLeaveCriticalSection
00401495   C3               RETN
00401496   8B4424 04        MOV EAX,DWORD PTR SS:[ESP+4]
0040149A   83F8 14          CMP EAX,14
0040149D   7D 0B            JGE SHORT app5win.004014AA
0040149F   83C0 1C          ADD EAX,1C
004014A2   50               PUSH EAX
004014A3   E8 771B0000      CALL app5win.0040301F
004014A8   59               POP ECX
004014A9   C3               RETN
004014AA   8B4424 08        MOV EAX,DWORD PTR SS:[ESP+8]
004014AE   83C0 20          ADD EAX,20
004014B1   50               PUSH EAX
004014B2   FF15 10604000    CALL DWORD PTR DS:[<&KERNEL32.LeaveCriti>; ntdll.RtlLeaveCriticalSection
004014B8   C3               RETN
004014B9   56               PUSH ESI
004014BA   8B7424 08        MOV ESI,DWORD PTR SS:[ESP+8]
004014BE   FF76 10          PUSH DWORD PTR DS:[ESI+10]
004014C1   E8 FA1B0000      CALL app5win.004030C0
004014C6   85C0             TEST EAX,EAX
004014C8   59               POP ECX
004014C9   74 77            JE SHORT app5win.00401542
004014CB   81FE A8704000    CMP ESI,app5win.004070A8
004014D1   75 04            JNZ SHORT app5win.004014D7
004014D3   33C0             XOR EAX,EAX
004014D5   EB 0B            JMP SHORT app5win.004014E2
004014D7   81FE C8704000    CMP ESI,app5win.004070C8
004014DD   75 63            JNZ SHORT app5win.00401542
004014DF   6A 01            PUSH 1
004014E1   58               POP EAX
004014E2   FF05 1C7D4000    INC DWORD PTR DS:[407D1C]
004014E8   66:F746 0C 0C01  TEST WORD PTR DS:[ESI+C],10C
004014EE   75 52            JNZ SHORT app5win.00401542
004014F0   833C85 207D4000 >CMP DWORD PTR DS:[EAX*4+407D20],0
004014F8   53               PUSH EBX
004014F9   57               PUSH EDI
004014FA   8D3C85 207D4000  LEA EDI,DWORD PTR DS:[EAX*4+407D20]
00401501   BB 00100000      MOV EBX,1000
00401506   75 20            JNZ SHORT app5win.00401528
00401508   53               PUSH EBX
00401509   E8 261B0000      CALL app5win.00403034
0040150E   85C0             TEST EAX,EAX
00401510   59               POP ECX
00401511   8907             MOV DWORD PTR DS:[EDI],EAX
00401513   75 13            JNZ SHORT app5win.00401528
00401515   8D46 14          LEA EAX,DWORD PTR DS:[ESI+14]
00401518   6A 02            PUSH 2
0040151A   8946 08          MOV DWORD PTR DS:[ESI+8],EAX
0040151D   8906             MOV DWORD PTR DS:[ESI],EAX
0040151F   58               POP EAX
00401520   8946 18          MOV DWORD PTR DS:[ESI+18],EAX
00401523   8946 04          MOV DWORD PTR DS:[ESI+4],EAX
00401526   EB 0D            JMP SHORT app5win.00401535
00401528   8B3F             MOV EDI,DWORD PTR DS:[EDI]
0040152A   895E 18          MOV DWORD PTR DS:[ESI+18],EBX
0040152D   897E 08          MOV DWORD PTR DS:[ESI+8],EDI
00401530   893E             MOV DWORD PTR DS:[ESI],EDI
00401532   895E 04          MOV DWORD PTR DS:[ESI+4],EBX
00401535   66:814E 0C 0211  OR WORD PTR DS:[ESI+C],1102
0040153B   6A 01            PUSH 1
0040153D   58               POP EAX
0040153E   5F               POP EDI
0040153F   5B               POP EBX
00401540   5E               POP ESI
00401541   C3               RETN
00401542   33C0             XOR EAX,EAX
00401544   5E               POP ESI
00401545   C3               RETN
00401546   837C24 04 00     CMP DWORD PTR SS:[ESP+4],0
0040154B   56               PUSH ESI
0040154C   74 20            JE SHORT app5win.0040156E
0040154E   8B7424 0C        MOV ESI,DWORD PTR SS:[ESP+C]
00401552   F646 0D 10       TEST BYTE PTR DS:[ESI+D],10
00401556   74 16            JE SHORT app5win.0040156E
00401558   56               PUSH ESI
00401559   E8 2E190000      CALL app5win.00402E8C
0040155E   8066 0D EE       AND BYTE PTR DS:[ESI+D],0EE
00401562   8366 18 00       AND DWORD PTR DS:[ESI+18],0
00401566   8326 00          AND DWORD PTR DS:[ESI],0
00401569   8366 08 00       AND DWORD PTR DS:[ESI+8],0
0040156D   59               POP ECX
0040156E   5E               POP ESI
0040156F   C3               RETN
00401570   55               PUSH EBP
00401571   8BEC             MOV EBP,ESP
00401573   81EC 48020000    SUB ESP,248
00401579   53               PUSH EBX
0040157A   56               PUSH ESI
0040157B   57               PUSH EDI
0040157C   8B7D 0C          MOV EDI,DWORD PTR SS:[EBP+C]
0040157F   33F6             XOR ESI,ESI
00401581   8A1F             MOV BL,BYTE PTR DS:[EDI]
00401583   47               INC EDI
00401584   84DB             TEST BL,BL
00401586   8975 F4          MOV DWORD PTR SS:[EBP-C],ESI
00401589   8975 EC          MOV DWORD PTR SS:[EBP-14],ESI
0040158C   897D 0C          MOV DWORD PTR SS:[EBP+C],EDI
0040158F   0F84 F4060000    JE app5win.00401C89
00401595   8B4D F0          MOV ECX,DWORD PTR SS:[EBP-10]
00401598   33D2             XOR EDX,EDX
0040159A   EB 08            JMP SHORT app5win.004015A4
0040159C   8B4D F0          /MOV ECX,DWORD PTR SS:[EBP-10]
0040159F   8B75 D0          |MOV ESI,DWORD PTR SS:[EBP-30]
004015A2   33D2             |XOR EDX,EDX
004015A4   3955 EC           CMP DWORD PTR SS:[EBP-14],EDX
004015A7   0F8C DC060000    |JL app5win.00401C89
004015AD   80FB 20          |CMP BL,20
004015B0   7C 13            |JL SHORT app5win.004015C5
004015B2   80FB 78          |CMP BL,78
004015B5   7F 0E            |JG SHORT app5win.004015C5
004015B7   0FBEC3           |MOVSX EAX,BL
004015BA   8A80 C4604000    |MOV AL,BYTE PTR DS:[EAX+<&KERNEL32.GetS>
004015C0   83E0 0F          |AND EAX,0F
004015C3   EB 02            |JMP SHORT app5win.004015C7
004015C5   33C0             |XOR EAX,EAX
004015C7   0FBE84C6 E460400>|MOVSX EAX,BYTE PTR DS:[ESI+EAX*8+4060E4>
004015CF   C1F8 04          |SAR EAX,4
004015D2   83F8 07          |CMP EAX,7                               ; Switch (cases 0..7)
004015D5   8945 D0          |MOV DWORD PTR SS:[EBP-30],EAX
004015D8   0F87 9A060000    |JA app5win.00401C78
004015DE   FF2485 911C4000  |JMP DWORD PTR DS:[EAX*4+401C91]
004015E5   834D F0 FF       |OR DWORD PTR SS:[EBP-10],FFFFFFFF       ; Case 1 of switch 004015D2
004015E9   8955 CC          |MOV DWORD PTR SS:[EBP-34],EDX
004015EC   8955 D8          |MOV DWORD PTR SS:[EBP-28],EDX
004015EF   8955 E0          |MOV DWORD PTR SS:[EBP-20],EDX
004015F2   8955 E4          |MOV DWORD PTR SS:[EBP-1C],EDX
004015F5   8955 FC          |MOV DWORD PTR SS:[EBP-4],EDX
004015F8   8955 DC          |MOV DWORD PTR SS:[EBP-24],EDX
004015FB   E9 78060000      |JMP app5win.00401C78
00401600   0FBEC3           |MOVSX EAX,BL                            ; Case 2 of switch 004015D2
00401603   83E8 20          |SUB EAX,20                              ; Switch (cases 20..30)
00401606   74 3B            |JE SHORT app5win.00401643
00401608   83E8 03          |SUB EAX,3
0040160B   74 2D            |JE SHORT app5win.0040163A
0040160D   83E8 08          |SUB EAX,8
00401610   74 1F            |JE SHORT app5win.00401631
00401612   48               |DEC EAX
00401613   48               |DEC EAX
00401614   74 12            |JE SHORT app5win.00401628
00401616   83E8 03          |SUB EAX,3
00401619   0F85 59060000    |JNZ app5win.00401C78
0040161F   834D FC 08       |OR DWORD PTR SS:[EBP-4],8               ; Case 30 ('0') of switch 00401603
00401623   E9 50060000      |JMP app5win.00401C78
00401628   834D FC 04       |OR DWORD PTR SS:[EBP-4],4               ; Case 2D ('-') of switch 00401603
0040162C   E9 47060000      |JMP app5win.00401C78
00401631   834D FC 01       |OR DWORD PTR SS:[EBP-4],1               ; Case 2B ('+') of switch 00401603
00401635   E9 3E060000      |JMP app5win.00401C78
0040163A   804D FC 80       |OR BYTE PTR SS:[EBP-4],80               ; Case 23 ('#') of switch 00401603
0040163E   E9 35060000      |JMP app5win.00401C78
00401643   834D FC 02       |OR DWORD PTR SS:[EBP-4],2               ; Case 20 (' ') of switch 00401603
00401647   E9 2C060000      |JMP app5win.00401C78
0040164C   80FB 2A          |CMP BL,2A                               ; Case 3 of switch 004015D2
0040164F   75 23            |JNZ SHORT app5win.00401674
00401651   8D45 10          |LEA EAX,DWORD PTR SS:[EBP+10]
00401654   50               |PUSH EAX
00401655   E8 F5060000      |CALL app5win.00401D4F
0040165A   85C0             |TEST EAX,EAX
0040165C   59               |POP ECX
0040165D   8945 E0          |MOV DWORD PTR SS:[EBP-20],EAX
00401660   0F8D 12060000    |JGE app5win.00401C78
00401666   834D FC 04       |OR DWORD PTR SS:[EBP-4],4
0040166A   F7D8             |NEG EAX
0040166C   8945 E0          |MOV DWORD PTR SS:[EBP-20],EAX
0040166F   E9 04060000      |JMP app5win.00401C78
00401674   8B45 E0          |MOV EAX,DWORD PTR SS:[EBP-20]
00401677   0FBECB           |MOVSX ECX,BL
0040167A   8D0480           |LEA EAX,DWORD PTR DS:[EAX+EAX*4]
0040167D   8D4441 D0        |LEA EAX,DWORD PTR DS:[ECX+EAX*2-30]
00401681  ^EB E9            |JMP SHORT app5win.0040166C
00401683   8955 F0          |MOV DWORD PTR SS:[EBP-10],EDX           ; Case 4 of switch 004015D2
00401686   E9 ED050000      |JMP app5win.00401C78
0040168B   80FB 2A          |CMP BL,2A                               ; Case 5 of switch 004015D2
0040168E   75 1E            |JNZ SHORT app5win.004016AE
00401690   8D45 10          |LEA EAX,DWORD PTR SS:[EBP+10]
00401693   50               |PUSH EAX
00401694   E8 B6060000      |CALL app5win.00401D4F
00401699   85C0             |TEST EAX,EAX
0040169B   59               |POP ECX
0040169C   8945 F0          |MOV DWORD PTR SS:[EBP-10],EAX
0040169F   0F8D D3050000    |JGE app5win.00401C78
004016A5   834D F0 FF       |OR DWORD PTR SS:[EBP-10],FFFFFFFF
004016A9   E9 CA050000      |JMP app5win.00401C78
004016AE   8D0489           |LEA EAX,DWORD PTR DS:[ECX+ECX*4]
004016B1   0FBECB           |MOVSX ECX,BL
004016B4   8D4441 D0        |LEA EAX,DWORD PTR DS:[ECX+EAX*2-30]
004016B8   8945 F0          |MOV DWORD PTR SS:[EBP-10],EAX
004016BB   E9 B8050000      |JMP app5win.00401C78
004016C0   80FB 49          |CMP BL,49                               ; Case 6 of switch 004015D2
004016C3   74 2E            |JE SHORT app5win.004016F3
004016C5   80FB 68          |CMP BL,68
004016C8   74 20            |JE SHORT app5win.004016EA
004016CA   80FB 6C          |CMP BL,6C
004016CD   74 12            |JE SHORT app5win.004016E1
004016CF   80FB 77          |CMP BL,77
004016D2   0F85 A0050000    |JNZ app5win.00401C78
004016D8   804D FD 08       |OR BYTE PTR SS:[EBP-3],8
004016DC   E9 97050000      |JMP app5win.00401C78
004016E1   834D FC 10       |OR DWORD PTR SS:[EBP-4],10
004016E5   E9 8E050000      |JMP app5win.00401C78
004016EA   834D FC 20       |OR DWORD PTR SS:[EBP-4],20
004016EE   E9 85050000      |JMP app5win.00401C78
004016F3   803F 36          |CMP BYTE PTR DS:[EDI],36
004016F6   75 14            |JNZ SHORT app5win.0040170C
004016F8   807F 01 34       |CMP BYTE PTR DS:[EDI+1],34
004016FC   75 0E            |JNZ SHORT app5win.0040170C
004016FE   47               |INC EDI
004016FF   47               |INC EDI
00401700   804D FD 80       |OR BYTE PTR SS:[EBP-3],80
00401704   897D 0C          |MOV DWORD PTR SS:[EBP+C],EDI
00401707   E9 6C050000      |JMP app5win.00401C78
0040170C   8955 D0          |MOV DWORD PTR SS:[EBP-30],EDX
0040170F   8B0D 40754000    |MOV ECX,DWORD PTR DS:[407540]           ; app5win.0040754A; Case 0 of switch 004015D2
00401715   8955 DC          |MOV DWORD PTR SS:[EBP-24],EDX
00401718   0FB6C3           |MOVZX EAX,BL
0040171B   F64441 01 80     |TEST BYTE PTR DS:[ECX+EAX*2+1],80
00401720   74 19            |JE SHORT app5win.0040173B
00401722   8D45 EC          |LEA EAX,DWORD PTR SS:[EBP-14]
00401725   50               |PUSH EAX
00401726   FF75 08          |PUSH DWORD PTR SS:[EBP+8]
00401729   0FBEC3           |MOVSX EAX,BL
0040172C   50               |PUSH EAX
0040172D   E8 7F050000      |CALL app5win.00401CB1
00401732   8A1F             |MOV BL,BYTE PTR DS:[EDI]
00401734   83C4 0C          |ADD ESP,0C
00401737   47               |INC EDI
00401738   897D 0C          |MOV DWORD PTR SS:[EBP+C],EDI
0040173B   8D45 EC          |LEA EAX,DWORD PTR SS:[EBP-14]
0040173E   50               |PUSH EAX
0040173F   FF75 08          |PUSH DWORD PTR SS:[EBP+8]
00401742   0FBEC3           |MOVSX EAX,BL
00401745   50               |PUSH EAX
00401746   E8 66050000      |CALL app5win.00401CB1
0040174B   83C4 0C          |ADD ESP,0C
0040174E   E9 25050000      |JMP app5win.00401C78
00401753   0FBEC3           |MOVSX EAX,BL                            ; Case 7 of switch 004015D2
00401756   83F8 67          |CMP EAX,67                              ; Switch (cases 43..78)
00401759   0F8F 1C020000    |JG app5win.0040197B
0040175F   83F8 65          |CMP EAX,65
00401762   0F8D 96000000    |JGE app5win.004017FE
00401768   83F8 58          |CMP EAX,58
0040176B   0F8F EB000000    |JG app5win.0040185C
00401771   0F84 78020000    |JE app5win.004019EF
00401777   83E8 43          |SUB EAX,43
0040177A   0F84 9F000000    |JE app5win.0040181F
00401780   48               |DEC EAX
00401781   48               |DEC EAX
00401782   74 70            |JE SHORT app5win.004017F4
00401784   48               |DEC EAX
00401785   48               |DEC EAX
00401786   74 6C            |JE SHORT app5win.004017F4
00401788   83E8 0C          |SUB EAX,0C
0040178B   0F85 E9030000    |JNZ app5win.00401B7A
00401791   66:F745 FC 3008  |TEST WORD PTR SS:[EBP-4],830            ; Case 53 ('S') of switch 00401756
00401797   75 04            |JNZ SHORT app5win.0040179D
00401799   804D FD 08       |OR BYTE PTR SS:[EBP-3],8
0040179D   8B75 F0          |MOV ESI,DWORD PTR SS:[EBP-10]           ; Case 73 ('s') of switch 00401756
004017A0   83FE FF          |CMP ESI,-1
004017A3   75 05            |JNZ SHORT app5win.004017AA
004017A5   BE FFFFFF7F      |MOV ESI,7FFFFFFF
004017AA   8D45 10          |LEA EAX,DWORD PTR SS:[EBP+10]
004017AD   50               |PUSH EAX
004017AE   E8 9C050000      |CALL app5win.00401D4F
004017B3   66:F745 FC 1008  |TEST WORD PTR SS:[EBP-4],810
004017B9   59               |POP ECX
004017BA   8BC8             |MOV ECX,EAX
004017BC   894D F8          |MOV DWORD PTR SS:[EBP-8],ECX
004017BF   0F84 FE010000    |JE app5win.004019C3
004017C5   85C9             |TEST ECX,ECX
004017C7   75 09            |JNZ SHORT app5win.004017D2
004017C9   8B0D 0C734000    |MOV ECX,DWORD PTR DS:[40730C]           ; app5win.00406140
004017CF   894D F8          |MOV DWORD PTR SS:[EBP-8],ECX
004017D2   C745 DC 01000000 |MOV DWORD PTR SS:[EBP-24],1
004017D9   8BC1             |MOV EAX,ECX
004017DB   8BD6             |/MOV EDX,ESI
004017DD   4E               ||DEC ESI
004017DE   85D2             ||TEST EDX,EDX
004017E0   0F84 D4010000    ||JE app5win.004019BA
004017E6   66:8338 00       ||CMP WORD PTR DS:[EAX],0
004017EA   0F84 CA010000    ||JE app5win.004019BA
004017F0   40               ||INC EAX
004017F1   40               ||INC EAX
004017F2  ^EB E7            |\JMP SHORT app5win.004017DB
004017F4   C745 CC 01000000 |MOV DWORD PTR SS:[EBP-34],1             ; Cases 45 ('E'),47 ('G') of switch 00401756
004017FB   80C3 20          |ADD BL,20
004017FE   834D FC 40       |OR DWORD PTR SS:[EBP-4],40              ; Cases 65 ('e'),66 ('f'),67 ('g') of switch 00401756
00401802   8DBD B8FDFFFF    |LEA EDI,DWORD PTR SS:[EBP-248]
00401808   3BCA             |CMP ECX,EDX
0040180A   897D F8          |MOV DWORD PTR SS:[EBP-8],EDI
0040180D   0F8D CF000000    |JGE app5win.004018E2
00401813   C745 F0 06000000 |MOV DWORD PTR SS:[EBP-10],6
0040181A   E9 D1000000      |JMP app5win.004018F0
0040181F   66:F745 FC 3008  |TEST WORD PTR SS:[EBP-4],830            ; Case 43 ('C') of switch 00401756
00401825   75 04            |JNZ SHORT app5win.0040182B
00401827   804D FD 08       |OR BYTE PTR SS:[EBP-3],8
0040182B   66:F745 FC 1008  |TEST WORD PTR SS:[EBP-4],810            ; Case 63 ('c') of switch 00401756
00401831   8D45 10          |LEA EAX,DWORD PTR SS:[EBP+10]
00401834   50               |PUSH EAX
00401835   74 3B            |JE SHORT app5win.00401872
00401837   E8 30050000      |CALL app5win.00401D6C
0040183C   50               |PUSH EAX
0040183D   8D85 B8FDFFFF    |LEA EAX,DWORD PTR SS:[EBP-248]
00401843   50               |PUSH EAX
00401844   E8 A0180000      |CALL app5win.004030E9
00401849   83C4 0C          |ADD ESP,0C
0040184C   8945 F4          |MOV DWORD PTR SS:[EBP-C],EAX
0040184F   85C0             |TEST EAX,EAX
00401851   7D 32            |JGE SHORT app5win.00401885
00401853   C745 D8 01000000 |MOV DWORD PTR SS:[EBP-28],1
0040185A   EB 29            |JMP SHORT app5win.00401885
0040185C   83E8 5A          |SUB EAX,5A
0040185F   74 32            |JE SHORT app5win.00401893
00401861   83E8 09          |SUB EAX,9
00401864  ^74 C5            |JE SHORT app5win.0040182B
00401866   48               |DEC EAX
00401867   0F84 E8010000    |JE app5win.00401A55
0040186D   E9 08030000      |JMP app5win.00401B7A
00401872   E8 D8040000      |CALL app5win.00401D4F
00401877   59               |POP ECX
00401878   8885 B8FDFFFF    |MOV BYTE PTR SS:[EBP-248],AL
0040187E   C745 F4 01000000 |MOV DWORD PTR SS:[EBP-C],1
00401885   8D85 B8FDFFFF    |LEA EAX,DWORD PTR SS:[EBP-248]
0040188B   8945 F8          |MOV DWORD PTR SS:[EBP-8],EAX
0040188E   E9 E7020000      |JMP app5win.00401B7A
00401893   8D45 10          |LEA EAX,DWORD PTR SS:[EBP+10]           ; Case 5A ('Z') of switch 00401756
00401896   50               |PUSH EAX
00401897   E8 B3040000      |CALL app5win.00401D4F
0040189C   85C0             |TEST EAX,EAX
0040189E   59               |POP ECX
0040189F   74 33            |JE SHORT app5win.004018D4
004018A1   8B48 04          |MOV ECX,DWORD PTR DS:[EAX+4]
004018A4   85C9             |TEST ECX,ECX
004018A6   74 2C            |JE SHORT app5win.004018D4
004018A8   F645 FD 08       |TEST BYTE PTR SS:[EBP-3],8
004018AC   74 17            |JE SHORT app5win.004018C5
004018AE   0FBF00           |MOVSX EAX,WORD PTR DS:[EAX]
004018B1   D1E8             |SHR EAX,1
004018B3   894D F8          |MOV DWORD PTR SS:[EBP-8],ECX
004018B6   8945 F4          |MOV DWORD PTR SS:[EBP-C],EAX
004018B9   C745 DC 01000000 |MOV DWORD PTR SS:[EBP-24],1
004018C0   E9 B5020000      |JMP app5win.00401B7A
004018C5   8365 DC 00       |AND DWORD PTR SS:[EBP-24],0
004018C9   894D F8          |MOV DWORD PTR SS:[EBP-8],ECX
004018CC   0FBF00           |MOVSX EAX,WORD PTR DS:[EAX]
004018CF   E9 A3020000      |JMP app5win.00401B77
004018D4   A1 08734000      |MOV EAX,DWORD PTR DS:[407308]
004018D9   8945 F8          |MOV DWORD PTR SS:[EBP-8],EAX
004018DC   50               |PUSH EAX
004018DD   E9 8E000000      |JMP app5win.00401970
004018E2   75 0C            |JNZ SHORT app5win.004018F0
004018E4   80FB 67          |CMP BL,67
004018E7   75 07            |JNZ SHORT app5win.004018F0
004018E9   C745 F0 01000000 |MOV DWORD PTR SS:[EBP-10],1
004018F0   8B45 10          |MOV EAX,DWORD PTR SS:[EBP+10]
004018F3   FF75 CC          |PUSH DWORD PTR SS:[EBP-34]
004018F6   83C0 08          |ADD EAX,8
004018F9   8945 10          |MOV DWORD PTR SS:[EBP+10],EAX
004018FC   FF75 F0          |PUSH DWORD PTR SS:[EBP-10]
004018FF   8B48 F8          |MOV ECX,DWORD PTR DS:[EAX-8]
00401902   894D B8          |MOV DWORD PTR SS:[EBP-48],ECX
00401905   8B40 FC          |MOV EAX,DWORD PTR DS:[EAX-4]
00401908   8945 BC          |MOV DWORD PTR SS:[EBP-44],EAX
0040190B   0FBEC3           |MOVSX EAX,BL
0040190E   50               |PUSH EAX
0040190F   8D85 B8FDFFFF    |LEA EAX,DWORD PTR SS:[EBP-248]
00401915   50               |PUSH EAX
00401916   8D45 B8          |LEA EAX,DWORD PTR SS:[EBP-48]
00401919   50               |PUSH EAX
0040191A   FF15 28754000    |CALL DWORD PTR DS:[407528]              ; app5win.004049E9
00401920   8B75 FC          |MOV ESI,DWORD PTR SS:[EBP-4]
00401923   83C4 14          |ADD ESP,14
00401926   81E6 80000000    |AND ESI,80
0040192C   74 14            |JE SHORT app5win.00401942
0040192E   837D F0 00       |CMP DWORD PTR SS:[EBP-10],0
00401932   75 0E            |JNZ SHORT app5win.00401942
00401934   8D85 B8FDFFFF    |LEA EAX,DWORD PTR SS:[EBP-248]
0040193A   50               |PUSH EAX
0040193B   FF15 34754000    |CALL DWORD PTR DS:[407534]              ; app5win.004049E9
00401941   59               |POP ECX
00401942   80FB 67          |CMP BL,67
00401945   75 12            |JNZ SHORT app5win.00401959
00401947   85F6             |TEST ESI,ESI
00401949   75 0E            |JNZ SHORT app5win.00401959
0040194B   8D85 B8FDFFFF    |LEA EAX,DWORD PTR SS:[EBP-248]
00401951   50               |PUSH EAX
00401952   FF15 2C754000    |CALL DWORD PTR DS:[40752C]              ; app5win.004049E9
00401958   59               |POP ECX
00401959   80BD B8FDFFFF 2D |CMP BYTE PTR SS:[EBP-248],2D
00401960   75 0D            |JNZ SHORT app5win.0040196F
00401962   804D FD 01       |OR BYTE PTR SS:[EBP-3],1
00401966   8DBD B9FDFFFF    |LEA EDI,DWORD PTR SS:[EBP-247]
0040196C   897D F8          |MOV DWORD PTR SS:[EBP-8],EDI
0040196F   57               |PUSH EDI
00401970   E8 6B060000      |CALL app5win.00401FE0
00401975   59               |POP ECX
00401976   E9 FC010000      |JMP app5win.00401B77
0040197B   83E8 69          |SUB EAX,69
0040197E   0F84 D1000000    |JE app5win.00401A55
00401984   83E8 05          |SUB EAX,5
00401987   0F84 9E000000    |JE app5win.00401A2B
0040198D   48               |DEC EAX
0040198E   0F84 84000000    |JE app5win.00401A18
00401994   48               |DEC EAX
00401995   74 51            |JE SHORT app5win.004019E8
00401997   83E8 03          |SUB EAX,3
0040199A  ^0F84 FDFDFFFF    |JE app5win.0040179D
004019A0   48               |DEC EAX
004019A1   48               |DEC EAX
004019A2   0F84 B1000000    |JE app5win.00401A59
004019A8   83E8 03          |SUB EAX,3
004019AB   0F85 C9010000    |JNZ app5win.00401B7A
004019B1   C745 D4 27000000 |MOV DWORD PTR SS:[EBP-2C],27            ; Case 78 ('x') of switch 00401756
004019B8   EB 3C            |JMP SHORT app5win.004019F6
004019BA   2BC1             |SUB EAX,ECX
004019BC   D1F8             |SAR EAX,1
004019BE   E9 B4010000      |JMP app5win.00401B77
004019C3   85C9             |TEST ECX,ECX
004019C5   75 09            |JNZ SHORT app5win.004019D0
004019C7   8B0D 08734000    |MOV ECX,DWORD PTR DS:[407308]           ; app5win.00406150
004019CD   894D F8          |MOV DWORD PTR SS:[EBP-8],ECX
004019D0   8BC1             |MOV EAX,ECX
004019D2   8BD6             |/MOV EDX,ESI
004019D4   4E               ||DEC ESI
004019D5   85D2             ||TEST EDX,EDX
004019D7   74 08            ||JE SHORT app5win.004019E1
004019D9   8038 00          ||CMP BYTE PTR DS:[EAX],0
004019DC   74 03            ||JE SHORT app5win.004019E1
004019DE   40               ||INC EAX
004019DF  ^EB F1            |\JMP SHORT app5win.004019D2
004019E1   2BC1             |SUB EAX,ECX
004019E3   E9 8F010000      |JMP app5win.00401B77
004019E8   C745 F0 08000000 |MOV DWORD PTR SS:[EBP-10],8             ; Case 70 ('p') of switch 00401756
004019EF   C745 D4 07000000 |MOV DWORD PTR SS:[EBP-2C],7             ; Case 58 ('X') of switch 00401756
004019F6   F645 FC 80       |TEST BYTE PTR SS:[EBP-4],80
004019FA   C745 F4 10000000 |MOV DWORD PTR SS:[EBP-C],10
00401A01   74 5D            |JE SHORT app5win.00401A60
00401A03   8A45 D4          |MOV AL,BYTE PTR SS:[EBP-2C]
00401A06   C645 EA 30       |MOV BYTE PTR SS:[EBP-16],30
00401A0A   04 51            |ADD AL,51
00401A0C   C745 E4 02000000 |MOV DWORD PTR SS:[EBP-1C],2
00401A13   8845 EB          |MOV BYTE PTR SS:[EBP-15],AL
00401A16   EB 48            |JMP SHORT app5win.00401A60
00401A18   F645 FC 80       |TEST BYTE PTR SS:[EBP-4],80             ; Case 6F ('o') of switch 00401756
00401A1C   C745 F4 08000000 |MOV DWORD PTR SS:[EBP-C],8
00401A23   74 3B            |JE SHORT app5win.00401A60
00401A25   804D FD 02       |OR BYTE PTR SS:[EBP-3],2
00401A29   EB 35            |JMP SHORT app5win.00401A60
00401A2B   8D45 10          |LEA EAX,DWORD PTR SS:[EBP+10]           ; Case 6E ('n') of switch 00401756
00401A2E   50               |PUSH EAX
00401A2F   E8 1B030000      |CALL app5win.00401D4F
00401A34   F645 FC 20       |TEST BYTE PTR SS:[EBP-4],20
00401A38   59               |POP ECX
00401A39   74 09            |JE SHORT app5win.00401A44
00401A3B   66:8B4D EC       |MOV CX,WORD PTR SS:[EBP-14]
00401A3F   66:8908          |MOV WORD PTR DS:[EAX],CX
00401A42   EB 05            |JMP SHORT app5win.00401A49
00401A44   8B4D EC          |MOV ECX,DWORD PTR SS:[EBP-14]
00401A47   8908             |MOV DWORD PTR DS:[EAX],ECX
00401A49   C745 D8 01000000 |MOV DWORD PTR SS:[EBP-28],1
00401A50   E9 23020000      |JMP app5win.00401C78
00401A55   834D FC 40       |OR DWORD PTR SS:[EBP-4],40              ; Cases 64 ('d'),69 ('i') of switch 00401756
00401A59   C745 F4 0A000000 |MOV DWORD PTR SS:[EBP-C],0A             ; Case 75 ('u') of switch 00401756
00401A60   F645 FD 80       |TEST BYTE PTR SS:[EBP-3],80
00401A64   74 0C            |JE SHORT app5win.00401A72
00401A66   8D45 10          |LEA EAX,DWORD PTR SS:[EBP+10]
00401A69   50               |PUSH EAX
00401A6A   E8 ED020000      |CALL app5win.00401D5C
00401A6F   59               |POP ECX
00401A70   EB 41            |JMP SHORT app5win.00401AB3
00401A72   F645 FC 20       |TEST BYTE PTR SS:[EBP-4],20
00401A76   74 21            |JE SHORT app5win.00401A99
00401A78   F645 FC 40       |TEST BYTE PTR SS:[EBP-4],40
00401A7C   8D45 10          |LEA EAX,DWORD PTR SS:[EBP+10]
00401A7F   50               |PUSH EAX
00401A80   74 0C            |JE SHORT app5win.00401A8E
00401A82   E8 C8020000      |CALL app5win.00401D4F
00401A87   59               |POP ECX
00401A88   0FBFC0           |MOVSX EAX,AX
00401A8B   99               |CDQ
00401A8C   EB 25            |JMP SHORT app5win.00401AB3
00401A8E   E8 BC020000      |CALL app5win.00401D4F
00401A93   59               |POP ECX
00401A94   0FB7C0           |MOVZX EAX,AX
00401A97  ^EB F2            |JMP SHORT app5win.00401A8B
00401A99   F645 FC 40       |TEST BYTE PTR SS:[EBP-4],40
00401A9D   8D45 10          |LEA EAX,DWORD PTR SS:[EBP+10]
00401AA0   50               |PUSH EAX
00401AA1   74 08            |JE SHORT app5win.00401AAB
00401AA3   E8 A7020000      |CALL app5win.00401D4F
00401AA8   59               |POP ECX
00401AA9  ^EB E0            |JMP SHORT app5win.00401A8B
00401AAB   E8 9F020000      |CALL app5win.00401D4F
00401AB0   59               |POP ECX
00401AB1   33D2             |XOR EDX,EDX
00401AB3   F645 FC 40       |TEST BYTE PTR SS:[EBP-4],40
00401AB7   74 1B            |JE SHORT app5win.00401AD4
00401AB9   85D2             |TEST EDX,EDX
00401ABB   7F 17            |JG SHORT app5win.00401AD4
00401ABD   7C 04            |JL SHORT app5win.00401AC3
00401ABF   85C0             |TEST EAX,EAX
00401AC1   73 11            |JNB SHORT app5win.00401AD4
00401AC3   F7D8             |NEG EAX
00401AC5   83D2 00          |ADC EDX,0
00401AC8   8BF0             |MOV ESI,EAX
00401ACA   F7DA             |NEG EDX
00401ACC   804D FD 01       |OR BYTE PTR SS:[EBP-3],1
00401AD0   8BFA             |MOV EDI,EDX
00401AD2   EB 04            |JMP SHORT app5win.00401AD8
00401AD4   8BF0             |MOV ESI,EAX
00401AD6   8BFA             |MOV EDI,EDX
00401AD8   F645 FD 80       |TEST BYTE PTR SS:[EBP-3],80
00401ADC   75 03            |JNZ SHORT app5win.00401AE1
00401ADE   83E7 00          |AND EDI,0
00401AE1   837D F0 00       |CMP DWORD PTR SS:[EBP-10],0
00401AE5   7D 09            |JGE SHORT app5win.00401AF0
00401AE7   C745 F0 01000000 |MOV DWORD PTR SS:[EBP-10],1
00401AEE   EB 04            |JMP SHORT app5win.00401AF4
00401AF0   8365 FC F7       |AND DWORD PTR SS:[EBP-4],FFFFFFF7
00401AF4   8BC6             |MOV EAX,ESI
00401AF6   0BC7             |OR EAX,EDI
00401AF8   75 04            |JNZ SHORT app5win.00401AFE
00401AFA   8365 E4 00       |AND DWORD PTR SS:[EBP-1C],0
00401AFE   8D45 B7          |LEA EAX,DWORD PTR SS:[EBP-49]
00401B01   8945 F8          |MOV DWORD PTR SS:[EBP-8],EAX
00401B04   8B45 F0          |/MOV EAX,DWORD PTR SS:[EBP-10]
00401B07   FF4D F0          ||DEC DWORD PTR SS:[EBP-10]
00401B0A   85C0             ||TEST EAX,EAX
00401B0C   7F 06            ||JG SHORT app5win.00401B14
00401B0E   8BC6             ||MOV EAX,ESI
00401B10   0BC7             ||OR EAX,EDI
00401B12   74 3B            ||JE SHORT app5win.00401B4F
00401B14   8B45 F4          ||MOV EAX,DWORD PTR SS:[EBP-C]
00401B17   99               ||CDQ
00401B18   52               ||PUSH EDX
00401B19   50               ||PUSH EAX
00401B1A   57               ||PUSH EDI
00401B1B   56               ||PUSH ESI
00401B1C   8945 C0          ||MOV DWORD PTR SS:[EBP-40],EAX
00401B1F   8955 C4          ||MOV DWORD PTR SS:[EBP-3C],EDX
00401B22   E8 F9160000      ||CALL app5win.00403220
00401B27   FF75 C4          ||PUSH DWORD PTR SS:[EBP-3C]
00401B2A   8BD8             ||MOV EBX,EAX
00401B2C   83C3 30          ||ADD EBX,30
00401B2F   FF75 C0          ||PUSH DWORD PTR SS:[EBP-40]
00401B32   57               ||PUSH EDI
00401B33   56               ||PUSH ESI
00401B34   E8 77160000      ||CALL app5win.004031B0
00401B39   83FB 39          ||CMP EBX,39
00401B3C   8BF0             ||MOV ESI,EAX
00401B3E   8BFA             ||MOV EDI,EDX
00401B40   7E 03            ||JLE SHORT app5win.00401B45
00401B42   035D D4          ||ADD EBX,DWORD PTR SS:[EBP-2C]
00401B45   8B45 F8          ||MOV EAX,DWORD PTR SS:[EBP-8]
00401B48   FF4D F8          ||DEC DWORD PTR SS:[EBP-8]
00401B4B   8818             ||MOV BYTE PTR DS:[EAX],BL
00401B4D  ^EB B5            |\JMP SHORT app5win.00401B04
00401B4F   8D45 B7          |LEA EAX,DWORD PTR SS:[EBP-49]
00401B52   2B45 F8          |SUB EAX,DWORD PTR SS:[EBP-8]
00401B55   FF45 F8          |INC DWORD PTR SS:[EBP-8]
00401B58   F645 FD 02       |TEST BYTE PTR SS:[EBP-3],2
00401B5C   8945 F4          |MOV DWORD PTR SS:[EBP-C],EAX
00401B5F   74 19            |JE SHORT app5win.00401B7A
00401B61   8B4D F8          |MOV ECX,DWORD PTR SS:[EBP-8]
00401B64   8039 30          |CMP BYTE PTR DS:[ECX],30
00401B67   75 04            |JNZ SHORT app5win.00401B6D
00401B69   85C0             |TEST EAX,EAX
00401B6B   75 0D            |JNZ SHORT app5win.00401B7A
00401B6D   FF4D F8          |DEC DWORD PTR SS:[EBP-8]
00401B70   40               |INC EAX
00401B71   8B4D F8          |MOV ECX,DWORD PTR SS:[EBP-8]
00401B74   C601 30          |MOV BYTE PTR DS:[ECX],30
00401B77   8945 F4          |MOV DWORD PTR SS:[EBP-C],EAX
00401B7A   837D D8 00       |CMP DWORD PTR SS:[EBP-28],0             ; Default case of switch 00401756
00401B7E   0F85 F4000000    |JNZ app5win.00401C78
00401B84   8B5D FC          |MOV EBX,DWORD PTR SS:[EBP-4]
00401B87   F6C3 40          |TEST BL,40
00401B8A   74 26            |JE SHORT app5win.00401BB2
00401B8C   F6C7 01          |TEST BH,1
00401B8F   74 06            |JE SHORT app5win.00401B97
00401B91   C645 EA 2D       |MOV BYTE PTR SS:[EBP-16],2D
00401B95   EB 14            |JMP SHORT app5win.00401BAB
00401B97   F6C3 01          |TEST BL,1
00401B9A   74 06            |JE SHORT app5win.00401BA2
00401B9C   C645 EA 2B       |MOV BYTE PTR SS:[EBP-16],2B
00401BA0   EB 09            |JMP SHORT app5win.00401BAB
00401BA2   F6C3 02          |TEST BL,2
00401BA5   74 0B            |JE SHORT app5win.00401BB2
00401BA7   C645 EA 20       |MOV BYTE PTR SS:[EBP-16],20
00401BAB   C745 E4 01000000 |MOV DWORD PTR SS:[EBP-1C],1
00401BB2   8B75 E0          |MOV ESI,DWORD PTR SS:[EBP-20]
00401BB5   2B75 E4          |SUB ESI,DWORD PTR SS:[EBP-1C]
00401BB8   2B75 F4          |SUB ESI,DWORD PTR SS:[EBP-C]
00401BBB   F6C3 0C          |TEST BL,0C
00401BBE   75 12            |JNZ SHORT app5win.00401BD2
00401BC0   8D45 EC          |LEA EAX,DWORD PTR SS:[EBP-14]
00401BC3   50               |PUSH EAX
00401BC4   FF75 08          |PUSH DWORD PTR SS:[EBP+8]
00401BC7   56               |PUSH ESI
00401BC8   6A 20            |PUSH 20
00401BCA   E8 17010000      |CALL app5win.00401CE6
00401BCF   83C4 10          |ADD ESP,10
00401BD2   8D45 EC          |LEA EAX,DWORD PTR SS:[EBP-14]
00401BD5   50               |PUSH EAX
00401BD6   8D45 EA          |LEA EAX,DWORD PTR SS:[EBP-16]
00401BD9   FF75 08          |PUSH DWORD PTR SS:[EBP+8]
00401BDC   FF75 E4          |PUSH DWORD PTR SS:[EBP-1C]
00401BDF   50               |PUSH EAX
00401BE0   E8 32010000      |CALL app5win.00401D17
00401BE5   83C4 10          |ADD ESP,10
00401BE8   F6C3 08          |TEST BL,8
00401BEB   74 17            |JE SHORT app5win.00401C04
00401BED   F6C3 04          |TEST BL,4
00401BF0   75 12            |JNZ SHORT app5win.00401C04
00401BF2   8D45 EC          |LEA EAX,DWORD PTR SS:[EBP-14]
00401BF5   50               |PUSH EAX
00401BF6   FF75 08          |PUSH DWORD PTR SS:[EBP+8]
00401BF9   56               |PUSH ESI
00401BFA   6A 30            |PUSH 30
00401BFC   E8 E5000000      |CALL app5win.00401CE6
00401C01   83C4 10          |ADD ESP,10
00401C04   837D DC 00       |CMP DWORD PTR SS:[EBP-24],0
00401C08   74 41            |JE SHORT app5win.00401C4B
00401C0A   837D F4 00       |CMP DWORD PTR SS:[EBP-C],0
00401C0E   7E 3B            |JLE SHORT app5win.00401C4B
00401C10   8B45 F4          |MOV EAX,DWORD PTR SS:[EBP-C]
00401C13   8B5D F8          |MOV EBX,DWORD PTR SS:[EBP-8]
00401C16   8D78 FF          |LEA EDI,DWORD PTR DS:[EAX-1]
00401C19   66:8B03          |/MOV AX,WORD PTR DS:[EBX]
00401C1C   43               ||INC EBX
00401C1D   50               ||PUSH EAX
00401C1E   8D45 C8          ||LEA EAX,DWORD PTR SS:[EBP-38]
00401C21   50               ||PUSH EAX
00401C22   43               ||INC EBX
00401C23   E8 C1140000      ||CALL app5win.004030E9
00401C28   59               ||POP ECX
00401C29   85C0             ||TEST EAX,EAX
00401C2B   59               ||POP ECX
00401C2C   7E 32            ||JLE SHORT app5win.00401C60
00401C2E   8D4D EC          ||LEA ECX,DWORD PTR SS:[EBP-14]
00401C31   51               ||PUSH ECX
00401C32   FF75 08          ||PUSH DWORD PTR SS:[EBP+8]
00401C35   50               ||PUSH EAX
00401C36   8D45 C8          ||LEA EAX,DWORD PTR SS:[EBP-38]
00401C39   50               ||PUSH EAX
00401C3A   E8 D8000000      ||CALL app5win.00401D17
00401C3F   83C4 10          ||ADD ESP,10
00401C42   8BC7             ||MOV EAX,EDI
00401C44   4F               ||DEC EDI
00401C45   85C0             ||TEST EAX,EAX
00401C47  ^75 D0            |\JNZ SHORT app5win.00401C19
00401C49   EB 15            |JMP SHORT app5win.00401C60
00401C4B   8D45 EC          |LEA EAX,DWORD PTR SS:[EBP-14]
00401C4E   50               |PUSH EAX
00401C4F   FF75 08          |PUSH DWORD PTR SS:[EBP+8]
00401C52   FF75 F4          |PUSH DWORD PTR SS:[EBP-C]
00401C55   FF75 F8          |PUSH DWORD PTR SS:[EBP-8]
00401C58   E8 BA000000      |CALL app5win.00401D17
00401C5D   83C4 10          |ADD ESP,10
00401C60   F645 FC 04       |TEST BYTE PTR SS:[EBP-4],4
00401C64   74 12            |JE SHORT app5win.00401C78
00401C66   8D45 EC          |LEA EAX,DWORD PTR SS:[EBP-14]
00401C69   50               |PUSH EAX
00401C6A   FF75 08          |PUSH DWORD PTR SS:[EBP+8]
00401C6D   56               |PUSH ESI
00401C6E   6A 20            |PUSH 20
00401C70   E8 71000000      |CALL app5win.00401CE6
00401C75   83C4 10          |ADD ESP,10
00401C78   8B7D 0C          |MOV EDI,DWORD PTR SS:[EBP+C]            ; Default case of switch 00401603
00401C7B   8A1F             |MOV BL,BYTE PTR DS:[EDI]
00401C7D   47               |INC EDI
00401C7E   84DB             |TEST BL,BL
00401C80   897D 0C          |MOV DWORD PTR SS:[EBP+C],EDI
00401C83  ^0F85 13F9FFFF    \JNZ app5win.0040159C
00401C89   8B45 EC          MOV EAX,DWORD PTR SS:[EBP-14]
00401C8C   5F               POP EDI
00401C8D   5E               POP ESI
00401C8E   5B               POP EBX
00401C8F   C9               LEAVE
00401C90   C3               RETN
00401C91   0F1740 00        MOVHPS QWORD PTR DS:[EAX],XMM0           ; Switch table used at 004015DE
00401C95   E5 15            IN EAX,15                                ; I/O command
00401C97   40               INC EAX
00401C98   0000             ADD BYTE PTR DS:[EAX],AL
00401C9A   16               PUSH SS
00401C9B   40               INC EAX
00401C9C   004C16 40        ADD BYTE PTR DS:[ESI+EDX+40],CL
00401CA0   0083 1640008B    ADD BYTE PTR DS:[EBX+8B004016],AL
00401CA6   16               PUSH SS
00401CA7   40               INC EAX
00401CA8   00C0             ADD AL,AL
00401CAA   16               PUSH SS
00401CAB   40               INC EAX
00401CAC   0053 17          ADD BYTE PTR DS:[EBX+17],DL
00401CAF   40               INC EAX
00401CB0   0055 8B          ADD BYTE PTR SS:[EBP-75],DL
00401CB3   EC               IN AL,DX                                 ; I/O command
00401CB4   8B4D 0C          MOV ECX,DWORD PTR SS:[EBP+C]
00401CB7   FF49 04          DEC DWORD PTR DS:[ECX+4]
00401CBA   78 0E            JS SHORT app5win.00401CCA
00401CBC   8B11             MOV EDX,DWORD PTR DS:[ECX]
00401CBE   8A45 08          MOV AL,BYTE PTR SS:[EBP+8]
00401CC1   8802             MOV BYTE PTR DS:[EDX],AL
00401CC3   FF01             INC DWORD PTR DS:[ECX]
00401CC5   0FB6C0           MOVZX EAX,AL
00401CC8   EB 0B            JMP SHORT app5win.00401CD5
00401CCA   51               PUSH ECX
00401CCB   FF75 08          PUSH DWORD PTR SS:[EBP+8]
00401CCE   E8 E3000000      CALL app5win.00401DB6
00401CD3   59               POP ECX
00401CD4   59               POP ECX
00401CD5   83F8 FF          CMP EAX,-1
00401CD8   8B45 10          MOV EAX,DWORD PTR SS:[EBP+10]
00401CDB   75 05            JNZ SHORT app5win.00401CE2
00401CDD   8308 FF          OR DWORD PTR DS:[EAX],FFFFFFFF
00401CE0   5D               POP EBP
00401CE1   C3               RETN
00401CE2   FF00             INC DWORD PTR DS:[EAX]
00401CE4   5D               POP EBP
00401CE5   C3               RETN
00401CE6   56               PUSH ESI
00401CE7   57               PUSH EDI
00401CE8   8B7C24 10        MOV EDI,DWORD PTR SS:[ESP+10]
00401CEC   8BC7             MOV EAX,EDI
00401CEE   4F               DEC EDI
00401CEF   85C0             TEST EAX,EAX
00401CF1   7E 21            JLE SHORT app5win.00401D14
00401CF3   8B7424 18        MOV ESI,DWORD PTR SS:[ESP+18]
00401CF7   56               /PUSH ESI
00401CF8   FF7424 18        |PUSH DWORD PTR SS:[ESP+18]
00401CFC   FF7424 14        |PUSH DWORD PTR SS:[ESP+14]
00401D00   E8 ACFFFFFF      |CALL app5win.00401CB1
00401D05   83C4 0C          |ADD ESP,0C
00401D08   833E FF          |CMP DWORD PTR DS:[ESI],-1
00401D0B   74 07            |JE SHORT app5win.00401D14
00401D0D   8BC7             |MOV EAX,EDI
00401D0F   4F               |DEC EDI
00401D10   85C0             |TEST EAX,EAX
00401D12  ^7F E3            \JG SHORT app5win.00401CF7
00401D14   5F               POP EDI
00401D15   5E               POP ESI
00401D16   C3               RETN
00401D17   53               PUSH EBX
00401D18   8B5C24 0C        MOV EBX,DWORD PTR SS:[ESP+C]
00401D1C   8BC3             MOV EAX,EBX
00401D1E   4B               DEC EBX
00401D1F   56               PUSH ESI
00401D20   57               PUSH EDI
00401D21   85C0             TEST EAX,EAX
00401D23   7E 26            JLE SHORT app5win.00401D4B
00401D25   8B7C24 1C        MOV EDI,DWORD PTR SS:[ESP+1C]
00401D29   8B7424 10        MOV ESI,DWORD PTR SS:[ESP+10]
00401D2D   0FBE06           /MOVSX EAX,BYTE PTR DS:[ESI]
00401D30   57               |PUSH EDI
00401D31   46               |INC ESI
00401D32   FF7424 1C        |PUSH DWORD PTR SS:[ESP+1C]
00401D36   50               |PUSH EAX
00401D37   E8 75FFFFFF      |CALL app5win.00401CB1
00401D3C   83C4 0C          |ADD ESP,0C
00401D3F   833F FF          |CMP DWORD PTR DS:[EDI],-1
00401D42   74 07            |JE SHORT app5win.00401D4B
00401D44   8BC3             |MOV EAX,EBX
00401D46   4B               |DEC EBX
00401D47   85C0             |TEST EAX,EAX
00401D49  ^7F E2            \JG SHORT app5win.00401D2D
00401D4B   5F               POP EDI
00401D4C   5E               POP ESI
00401D4D   5B               POP EBX
00401D4E   C3               RETN
00401D4F   8B4424 04        MOV EAX,DWORD PTR SS:[ESP+4]
00401D53   8300 04          ADD DWORD PTR DS:[EAX],4
00401D56   8B00             MOV EAX,DWORD PTR DS:[EAX]
00401D58   8B40 FC          MOV EAX,DWORD PTR DS:[EAX-4]
00401D5B   C3               RETN
00401D5C   8B4424 04        MOV EAX,DWORD PTR SS:[ESP+4]
00401D60   8300 08          ADD DWORD PTR DS:[EAX],8
00401D63   8B08             MOV ECX,DWORD PTR DS:[EAX]
00401D65   8B41 F8          MOV EAX,DWORD PTR DS:[ECX-8]
00401D68   8B51 FC          MOV EDX,DWORD PTR DS:[ECX-4]
00401D6B   C3               RETN
00401D6C   8B4424 04        MOV EAX,DWORD PTR SS:[ESP+4]
00401D70   8300 04          ADD DWORD PTR DS:[EAX],4
00401D73   8B00             MOV EAX,DWORD PTR DS:[EAX]
00401D75   66:8B40 FC       MOV AX,WORD PTR DS:[EAX-4]
00401D79   C3               RETN
00401D7A   56               PUSH ESI
00401D7B   8B7424 08        MOV ESI,DWORD PTR SS:[ESP+8]
00401D7F   57               PUSH EDI
00401D80   56               PUSH ESI
00401D81   E8 8FF6FFFF      CALL app5win.00401415
00401D86   FF4E 04          DEC DWORD PTR DS:[ESI+4]
00401D89   59               POP ECX
00401D8A   78 0A            JS SHORT app5win.00401D96
00401D8C   8B06             MOV EAX,DWORD PTR DS:[ESI]
00401D8E   0FB638           MOVZX EDI,BYTE PTR DS:[EAX]
00401D91   40               INC EAX
00401D92   8906             MOV DWORD PTR DS:[ESI],EAX
00401D94   EB 09            JMP SHORT app5win.00401D9F
00401D96   56               PUSH ESI
00401D97   E8 F9140000      CALL app5win.00403295
00401D9C   59               POP ECX
00401D9D   8BF8             MOV EDI,EAX
00401D9F   56               PUSH ESI
00401DA0   E8 C2F6FFFF      CALL app5win.00401467
00401DA5   59               POP ECX
00401DA6   8BC7             MOV EAX,EDI
00401DA8   5F               POP EDI
00401DA9   5E               POP ESI
00401DAA   C3               RETN
00401DAB   FF7424 04        PUSH DWORD PTR SS:[ESP+4]
00401DAF   E8 C6FFFFFF      CALL app5win.00401D7A
00401DB4   59               POP ECX
00401DB5   C3               RETN
00401DB6   55               PUSH EBP
00401DB7   8BEC             MOV EBP,ESP
00401DB9   53               PUSH EBX
00401DBA   56               PUSH ESI
00401DBB   8B75 0C          MOV ESI,DWORD PTR SS:[EBP+C]
00401DBE   8B46 0C          MOV EAX,DWORD PTR DS:[ESI+C]
00401DC1   8B5E 10          MOV EBX,DWORD PTR DS:[ESI+10]
00401DC4   A8 82            TEST AL,82
00401DC6   0F84 F6000000    JE app5win.00401EC2
00401DCC   A8 40            TEST AL,40
00401DCE   0F85 EE000000    JNZ app5win.00401EC2
00401DD4   A8 01            TEST AL,1
00401DD6   74 16            JE SHORT app5win.00401DEE
00401DD8   8366 04 00       AND DWORD PTR DS:[ESI+4],0
00401DDC   A8 10            TEST AL,10
00401DDE   0F84 DE000000    JE app5win.00401EC2
00401DE4   8B4E 08          MOV ECX,DWORD PTR DS:[ESI+8]
00401DE7   24 FE            AND AL,0FE
00401DE9   890E             MOV DWORD PTR DS:[ESI],ECX
00401DEB   8946 0C          MOV DWORD PTR DS:[ESI+C],EAX
00401DEE   8B46 0C          MOV EAX,DWORD PTR DS:[ESI+C]
00401DF1   8366 04 00       AND DWORD PTR DS:[ESI+4],0
00401DF5   8365 0C 00       AND DWORD PTR SS:[EBP+C],0
00401DF9   24 EF            AND AL,0EF
00401DFB   0C 02            OR AL,2
00401DFD   66:A9 0C01       TEST AX,10C
00401E01   8946 0C          MOV DWORD PTR DS:[ESI+C],EAX
00401E04   75 22            JNZ SHORT app5win.00401E28
00401E06   81FE A8704000    CMP ESI,app5win.004070A8
00401E0C   74 08            JE SHORT app5win.00401E16
00401E0E   81FE C8704000    CMP ESI,app5win.004070C8
00401E14   75 0B            JNZ SHORT app5win.00401E21
00401E16   53               PUSH EBX
00401E17   E8 A4120000      CALL app5win.004030C0
00401E1C   85C0             TEST EAX,EAX
00401E1E   59               POP ECX
00401E1F   75 07            JNZ SHORT app5win.00401E28
00401E21   56               PUSH ESI
00401E22   E8 12180000      CALL app5win.00403639
00401E27   59               POP ECX
00401E28   66:F746 0C 0801  TEST WORD PTR DS:[ESI+C],108
00401E2E   57               PUSH EDI
00401E2F   74 67            JE SHORT app5win.00401E98
00401E31   8B46 08          MOV EAX,DWORD PTR DS:[ESI+8]
00401E34   8B3E             MOV EDI,DWORD PTR DS:[ESI]
00401E36   2BF8             SUB EDI,EAX
00401E38   8D48 01          LEA ECX,DWORD PTR DS:[EAX+1]
00401E3B   890E             MOV DWORD PTR DS:[ESI],ECX
00401E3D   8B4E 18          MOV ECX,DWORD PTR DS:[ESI+18]
00401E40   49               DEC ECX
00401E41   85FF             TEST EDI,EDI
00401E43   894E 04          MOV DWORD PTR DS:[ESI+4],ECX
00401E46   7E 10            JLE SHORT app5win.00401E58
00401E48   57               PUSH EDI
00401E49   50               PUSH EAX
00401E4A   53               PUSH EBX
00401E4B   E8 F9150000      CALL app5win.00403449
00401E50   83C4 0C          ADD ESP,0C
00401E53   8945 0C          MOV DWORD PTR SS:[EBP+C],EAX
00401E56   EB 36            JMP SHORT app5win.00401E8E
00401E58   83FB FF          CMP EBX,-1
00401E5B   74 19            JE SHORT app5win.00401E76
00401E5D   8BCB             MOV ECX,EBX
00401E5F   8BC3             MOV EAX,EBX
00401E61   C1F9 05          SAR ECX,5
00401E64   83E0 1F          AND EAX,1F
00401E67   8B0C8D C0824000  MOV ECX,DWORD PTR DS:[ECX*4+4082C0]
00401E6E   8D04C0           LEA EAX,DWORD PTR DS:[EAX+EAX*8]
00401E71   8D0481           LEA EAX,DWORD PTR DS:[ECX+EAX*4]
00401E74   EB 05            JMP SHORT app5win.00401E7B
00401E76   B8 98734000      MOV EAX,app5win.00407398
00401E7B   F640 04 20       TEST BYTE PTR DS:[EAX+4],20
00401E7F   74 0D            JE SHORT app5win.00401E8E
00401E81   6A 02            PUSH 2
00401E83   6A 00            PUSH 0
00401E85   53               PUSH EBX
00401E86   E8 E6140000      CALL app5win.00403371
00401E8B   83C4 0C          ADD ESP,0C
00401E8E   8B46 08          MOV EAX,DWORD PTR DS:[ESI+8]
00401E91   8A4D 08          MOV CL,BYTE PTR SS:[EBP+8]
00401E94   8808             MOV BYTE PTR DS:[EAX],CL
00401E96   EB 14            JMP SHORT app5win.00401EAC
00401E98   6A 01            PUSH 1
00401E9A   8D45 08          LEA EAX,DWORD PTR SS:[EBP+8]
00401E9D   5F               POP EDI
00401E9E   57               PUSH EDI
00401E9F   50               PUSH EAX
00401EA0   53               PUSH EBX
00401EA1   E8 A3150000      CALL app5win.00403449
00401EA6   83C4 0C          ADD ESP,0C
00401EA9   8945 0C          MOV DWORD PTR SS:[EBP+C],EAX
00401EAC   397D 0C          CMP DWORD PTR SS:[EBP+C],EDI
00401EAF   5F               POP EDI
00401EB0   74 06            JE SHORT app5win.00401EB8
00401EB2   834E 0C 20       OR DWORD PTR DS:[ESI+C],20
00401EB6   EB 0F            JMP SHORT app5win.00401EC7
00401EB8   8B45 08          MOV EAX,DWORD PTR SS:[EBP+8]
00401EBB   25 FF000000      AND EAX,0FF
00401EC0   EB 08            JMP SHORT app5win.00401ECA
00401EC2   0C 20            OR AL,20
00401EC4   8946 0C          MOV DWORD PTR DS:[ESI+C],EAX
00401EC7   83C8 FF          OR EAX,FFFFFFFF
00401ECA   5E               POP ESI
00401ECB   5B               POP EBX
00401ECC   5D               POP EBP
00401ECD   C3               RETN
00401ECE   55               PUSH EBP
00401ECF   8BEC             MOV EBP,ESP
00401ED1   51               PUSH ECX
00401ED2   53               PUSH EBX
00401ED3   56               PUSH ESI
00401ED4   57               PUSH EDI
00401ED5   8B7D 0C          MOV EDI,DWORD PTR SS:[EBP+C]
00401ED8   0FAF7D 10        IMUL EDI,DWORD PTR SS:[EBP+10]
00401EDC   8B45 08          MOV EAX,DWORD PTR SS:[EBP+8]
00401EDF   897D FC          MOV DWORD PTR SS:[EBP-4],EDI
00401EE2   85FF             TEST EDI,EDI
00401EE4   8945 08          MOV DWORD PTR SS:[EBP+8],EAX
00401EE7   8BDF             MOV EBX,EDI
00401EE9   75 07            JNZ SHORT app5win.00401EF2
00401EEB   33C0             XOR EAX,EAX
00401EED   E9 CD000000      JMP app5win.00401FBF
00401EF2   8B75 14          MOV ESI,DWORD PTR SS:[EBP+14]
00401EF5   66:F746 0C 0C01  TEST WORD PTR DS:[ESI+C],10C
00401EFB   74 08            JE SHORT app5win.00401F05
00401EFD   8B46 18          MOV EAX,DWORD PTR DS:[ESI+18]
00401F00   8945 14          MOV DWORD PTR SS:[EBP+14],EAX
00401F03   EB 07            JMP SHORT app5win.00401F0C
00401F05   C745 14 00100000 MOV DWORD PTR SS:[EBP+14],1000
00401F0C   8B4E 0C          /MOV ECX,DWORD PTR DS:[ESI+C]
00401F0F   81E1 08010000    |AND ECX,108
00401F15   74 29            |JE SHORT app5win.00401F40
00401F17   8B46 04          |MOV EAX,DWORD PTR DS:[ESI+4]
00401F1A   85C0             |TEST EAX,EAX
00401F1C   74 22            |JE SHORT app5win.00401F40
00401F1E   3BD8             |CMP EBX,EAX
00401F20   8BFB             |MOV EDI,EBX
00401F22   72 02            |JB SHORT app5win.00401F26
00401F24   8BF8             |MOV EDI,EAX
00401F26   57               |PUSH EDI
00401F27   FF75 08          |PUSH DWORD PTR SS:[EBP+8]
00401F2A   FF36             |PUSH DWORD PTR DS:[ESI]
00401F2C   E8 4F170000      |CALL app5win.00403680
00401F31   297E 04          |SUB DWORD PTR DS:[ESI+4],EDI
00401F34   013E             |ADD DWORD PTR DS:[ESI],EDI
00401F36   83C4 0C          |ADD ESP,0C
00401F39   2BDF             |SUB EBX,EDI
00401F3B   017D 08          |ADD DWORD PTR SS:[EBP+8],EDI
00401F3E   EB 46            |JMP SHORT app5win.00401F86
00401F40   3B5D 14          |CMP EBX,DWORD PTR SS:[EBP+14]
00401F43   72 46            |JB SHORT app5win.00401F8B
00401F45   85C9             |TEST ECX,ECX
00401F47   74 0B            |JE SHORT app5win.00401F54
00401F49   56               |PUSH ESI
00401F4A   E8 3D0F0000      |CALL app5win.00402E8C
00401F4F   85C0             |TEST EAX,EAX
00401F51   59               |POP ECX
00401F52   75 79            |JNZ SHORT app5win.00401FCD
00401F54   837D 14 00       |CMP DWORD PTR SS:[EBP+14],0
00401F58   74 0D            |JE SHORT app5win.00401F67
00401F5A   8BC3             |MOV EAX,EBX
00401F5C   33D2             |XOR EDX,EDX
00401F5E   F775 14          |DIV DWORD PTR SS:[EBP+14]
00401F61   8BFB             |MOV EDI,EBX
00401F63   2BFA             |SUB EDI,EDX
00401F65   EB 02            |JMP SHORT app5win.00401F69
00401F67   8BFB             |MOV EDI,EBX
00401F69   57               |PUSH EDI
00401F6A   FF75 08          |PUSH DWORD PTR SS:[EBP+8]
00401F6D   FF76 10          |PUSH DWORD PTR DS:[ESI+10]
00401F70   E8 D4140000      |CALL app5win.00403449
00401F75   83C4 0C          |ADD ESP,0C
00401F78   83F8 FF          |CMP EAX,-1
00401F7B   74 47            |JE SHORT app5win.00401FC4
00401F7D   0145 08          |ADD DWORD PTR SS:[EBP+8],EAX
00401F80   2BD8             |SUB EBX,EAX
00401F82   3BC7             |CMP EAX,EDI
00401F84   72 3E            |JB SHORT app5win.00401FC4
00401F86   8B7D FC          |MOV EDI,DWORD PTR SS:[EBP-4]
00401F89   EB 29            |JMP SHORT app5win.00401FB4
00401F8B   8B45 08          |MOV EAX,DWORD PTR SS:[EBP+8]
00401F8E   56               |PUSH ESI
00401F8F   0FBE00           |MOVSX EAX,BYTE PTR DS:[EAX]
00401F92   50               |PUSH EAX
00401F93   E8 1EFEFFFF      |CALL app5win.00401DB6
00401F98   59               |POP ECX
00401F99   83F8 FF          |CMP EAX,-1
00401F9C   59               |POP ECX
00401F9D   74 2E            |JE SHORT app5win.00401FCD
00401F9F   FF45 08          |INC DWORD PTR SS:[EBP+8]
00401FA2   8B46 18          |MOV EAX,DWORD PTR DS:[ESI+18]
00401FA5   4B               |DEC EBX
00401FA6   8945 14          |MOV DWORD PTR SS:[EBP+14],EAX
00401FA9   85C0             |TEST EAX,EAX
00401FAB   7F 07            |JG SHORT app5win.00401FB4
00401FAD   C745 14 01000000 |MOV DWORD PTR SS:[EBP+14],1
00401FB4   85DB             |TEST EBX,EBX
00401FB6  ^0F85 50FFFFFF    \JNZ app5win.00401F0C
00401FBC   8B45 10          MOV EAX,DWORD PTR SS:[EBP+10]
00401FBF   5F               POP EDI
00401FC0   5E               POP ESI
00401FC1   5B               POP EBX
00401FC2   C9               LEAVE
00401FC3   C3               RETN
00401FC4   834E 0C 20       OR DWORD PTR DS:[ESI+C],20
00401FC8   8B45 FC          MOV EAX,DWORD PTR SS:[EBP-4]
00401FCB   EB 02            JMP SHORT app5win.00401FCF
00401FCD   8BC7             MOV EAX,EDI
00401FCF   2BC3             SUB EAX,EBX
00401FD1   33D2             XOR EDX,EDX
00401FD3   F775 0C          DIV DWORD PTR SS:[EBP+C]
00401FD6  ^EB E7            JMP SHORT app5win.00401FBF
00401FD8   CC               INT3
00401FD9   CC               INT3
00401FDA   CC               INT3
00401FDB   CC               INT3
00401FDC   CC               INT3
00401FDD   CC               INT3
00401FDE   CC               INT3
00401FDF   CC               INT3
00401FE0   8B4C24 04        MOV ECX,DWORD PTR SS:[ESP+4]
00401FE4   F7C1 03000000    TEST ECX,3
00401FEA   74 14            JE SHORT app5win.00402000
00401FEC   8A01             /MOV AL,BYTE PTR DS:[ECX]
00401FEE   41               |INC ECX
00401FEF   84C0             |TEST AL,AL
00401FF1   74 40            |JE SHORT app5win.00402033
00401FF3   F7C1 03000000    |TEST ECX,3
00401FF9  ^75 F1            \JNZ SHORT app5win.00401FEC
00401FFB   05 00000000      ADD EAX,0
00402000   8B01             /MOV EAX,DWORD PTR DS:[ECX]
00402002   BA FFFEFE7E      |MOV EDX,7EFEFEFF
00402007   03D0             |ADD EDX,EAX
00402009   83F0 FF          |XOR EAX,FFFFFFFF
0040200C   33C2             |XOR EAX,EDX
0040200E   83C1 04          |ADD ECX,4
00402011   A9 00010181      |TEST EAX,81010100
00402016  ^74 E8            |JE SHORT app5win.00402000
00402018   8B41 FC          |MOV EAX,DWORD PTR DS:[ECX-4]
0040201B   84C0             |TEST AL,AL
0040201D   74 32            |JE SHORT app5win.00402051
0040201F   84E4             |TEST AH,AH
00402021   74 24            |JE SHORT app5win.00402047
00402023   A9 0000FF00      |TEST EAX,0FF0000
00402028   74 13            |JE SHORT app5win.0040203D
0040202A   A9 000000FF      |TEST EAX,FF000000
0040202F   74 02            |JE SHORT app5win.00402033
00402031  ^EB CD            \JMP SHORT app5win.00402000
00402033   8D41 FF          LEA EAX,DWORD PTR DS:[ECX-1]
00402036   8B4C24 04        MOV ECX,DWORD PTR SS:[ESP+4]
0040203A   2BC1             SUB EAX,ECX
0040203C   C3               RETN
0040203D   8D41 FE          LEA EAX,DWORD PTR DS:[ECX-2]
00402040   8B4C24 04        MOV ECX,DWORD PTR SS:[ESP+4]
00402044   2BC1             SUB EAX,ECX
00402046   C3               RETN
00402047   8D41 FD          LEA EAX,DWORD PTR DS:[ECX-3]
0040204A   8B4C24 04        MOV ECX,DWORD PTR SS:[ESP+4]
0040204E   2BC1             SUB EAX,ECX
00402050   C3               RETN
00402051   8D41 FC          LEA EAX,DWORD PTR DS:[ECX-4]
00402054   8B4C24 04        MOV ECX,DWORD PTR SS:[ESP+4]
00402058   2BC1             SUB EAX,ECX
0040205A   C3               RETN
0040205B   A1 D4834000      MOV EAX,DWORD PTR DS:[4083D4]
00402060   85C0             TEST EAX,EAX
00402062   74 02            JE SHORT app5win.00402066
00402064   FFD0             CALL EAX
00402066   68 14704000      PUSH app5win.00407014
0040206B   68 08704000      PUSH app5win.00407008
00402070   E8 EC000000      CALL app5win.00402161
00402075   68 04704000      PUSH app5win.00407004
0040207A   68 00704000      PUSH app5win.00407000
0040207F   E8 DD000000      CALL app5win.00402161
00402084   83C4 10          ADD ESP,10
00402087   C3               RETN
00402088   6A 00            PUSH 0
0040208A   6A 00            PUSH 0
0040208C   FF7424 0C        PUSH DWORD PTR SS:[ESP+C]
00402090   E8 15000000      CALL app5win.004020AA
00402095   83C4 0C          ADD ESP,0C
00402098   C3               RETN
00402099   6A 00            PUSH 0
0040209B   6A 01            PUSH 1
0040209D   FF7424 0C        PUSH DWORD PTR SS:[ESP+C]
004020A1   E8 04000000      CALL app5win.004020AA
004020A6   83C4 0C          ADD ESP,0C
004020A9   C3               RETN
004020AA   57               PUSH EDI
004020AB   E8 9F000000      CALL app5win.0040214F
004020B0   6A 01            PUSH 1
004020B2   5F               POP EDI
004020B3   393D 687D4000    CMP DWORD PTR DS:[407D68],EDI
004020B9   75 11            JNZ SHORT app5win.004020CC
004020BB   FF7424 08        PUSH DWORD PTR SS:[ESP+8]
004020BF   FF15 18604000    CALL DWORD PTR DS:[<&KERNEL32.GetCurrent>; kernel32.GetCurrentProcess
004020C5   50               PUSH EAX
004020C6   FF15 14604000    CALL DWORD PTR DS:[<&KERNEL32.TerminateP>; kernel32.TerminateProcess
004020CC   837C24 0C 00     CMP DWORD PTR SS:[ESP+C],0
004020D1   53               PUSH EBX
004020D2   8B5C24 14        MOV EBX,DWORD PTR SS:[ESP+14]
004020D6   893D 647D4000    MOV DWORD PTR DS:[407D64],EDI
004020DC   881D 607D4000    MOV BYTE PTR DS:[407D60],BL
004020E2   75 3C            JNZ SHORT app5win.00402120
004020E4   A1 D0834000      MOV EAX,DWORD PTR DS:[4083D0]
004020E9   85C0             TEST EAX,EAX
004020EB   74 22            JE SHORT app5win.0040210F
004020ED   8B0D CC834000    MOV ECX,DWORD PTR DS:[4083CC]
004020F3   56               PUSH ESI
004020F4   8D71 FC          LEA ESI,DWORD PTR DS:[ECX-4]
004020F7   3BF0             CMP ESI,EAX
004020F9   72 13            JB SHORT app5win.0040210E
004020FB   8B06             /MOV EAX,DWORD PTR DS:[ESI]
004020FD   85C0             |TEST EAX,EAX
004020FF   74 02            |JE SHORT app5win.00402103
00402101   FFD0             |CALL EAX
00402103   83EE 04          |SUB ESI,4
00402106   3B35 D0834000    |CMP ESI,DWORD PTR DS:[4083D0]
0040210C  ^73 ED            \JNB SHORT app5win.004020FB
0040210E   5E               POP ESI
0040210F   68 20704000      PUSH app5win.00407020
00402114   68 18704000      PUSH app5win.00407018
00402119   E8 43000000      CALL app5win.00402161
0040211E   59               POP ECX
0040211F   59               POP ECX
00402120   68 28704000      PUSH app5win.00407028
00402125   68 24704000      PUSH app5win.00407024
0040212A   E8 32000000      CALL app5win.00402161
0040212F   59               POP ECX
00402130   59               POP ECX
00402131   85DB             TEST EBX,EBX
00402133   5B               POP EBX
00402134   74 07            JE SHORT app5win.0040213D
00402136   E8 1D000000      CALL app5win.00402158
0040213B   5F               POP EDI
0040213C   C3               RETN
0040213D   FF7424 08        PUSH DWORD PTR SS:[ESP+8]
00402141   893D 687D4000    MOV DWORD PTR DS:[407D68],EDI
00402147   FF15 08604000    CALL DWORD PTR DS:[<&KERNEL32.ExitProces>; kernel32.ExitProcess
0040214D   5F               POP EDI
0040214E   C3               RETN
0040214F   6A 0D            PUSH 0D
00402151   E8 680E0000      CALL app5win.00402FBE
00402156   59               POP ECX
00402157   C3               RETN
00402158   6A 0D            PUSH 0D
0040215A   E8 C00E0000      CALL app5win.0040301F
0040215F   59               POP ECX
00402160   C3               RETN
00402161   56               PUSH ESI
00402162   8B7424 08        MOV ESI,DWORD PTR SS:[ESP+8]
00402166   3B7424 0C        /CMP ESI,DWORD PTR SS:[ESP+C]
0040216A   73 0D            |JNB SHORT app5win.00402179
0040216C   8B06             |MOV EAX,DWORD PTR DS:[ESI]
0040216E   85C0             |TEST EAX,EAX
00402170   74 02            |JE SHORT app5win.00402174
00402172   FFD0             |CALL EAX
00402174   83C6 04          |ADD ESI,4
00402177  ^EB ED            \JMP SHORT app5win.00402166
00402179   5E               POP ESI
0040217A   C3               RETN
0040217B   55               PUSH EBP
0040217C   8BEC             MOV EBP,ESP
0040217E   51               PUSH ECX
0040217F   53               PUSH EBX
00402180   56               PUSH ESI
00402181   E8 C8070000      CALL app5win.0040294E
00402186   8BF0             MOV ESI,EAX
00402188   FF76 50          PUSH DWORD PTR DS:[ESI+50]
0040218B   FF75 08          PUSH DWORD PTR SS:[EBP+8]
0040218E   E8 26010000      CALL app5win.004022B9
00402193   59               POP ECX
00402194   85C0             TEST EAX,EAX
00402196   59               POP ECX
00402197   0F84 0F010000    JE app5win.004022AC
0040219D   8B58 08          MOV EBX,DWORD PTR DS:[EAX+8]
004021A0   85DB             TEST EBX,EBX
004021A2   895D 08          MOV DWORD PTR SS:[EBP+8],EBX
004021A5   0F84 01010000    JE app5win.004022AC
004021AB   83FB 05          CMP EBX,5
004021AE   75 0C            JNZ SHORT app5win.004021BC
004021B0   8360 08 00       AND DWORD PTR DS:[EAX+8],0
004021B4   6A 01            PUSH 1
004021B6   58               POP EAX
004021B7   E9 F9000000      JMP app5win.004022B5
004021BC   83FB 01          CMP EBX,1
004021BF   0F84 E2000000    JE app5win.004022A7
004021C5   8B4E 54          MOV ECX,DWORD PTR DS:[ESI+54]
004021C8   894D FC          MOV DWORD PTR SS:[EBP-4],ECX
004021CB   8B4D 0C          MOV ECX,DWORD PTR SS:[EBP+C]
004021CE   894E 54          MOV DWORD PTR DS:[ESI+54],ECX
004021D1   8B48 04          MOV ECX,DWORD PTR DS:[EAX+4]
004021D4   83F9 08          CMP ECX,8
004021D7   0F85 BC000000    JNZ app5win.00402299
004021DD   8B15 88734000    MOV EDX,DWORD PTR DS:[407388]
004021E3   8B0D 8C734000    MOV ECX,DWORD PTR DS:[40738C]
004021E9   03CA             ADD ECX,EDX
004021EB   57               PUSH EDI
004021EC   3BD1             CMP EDX,ECX
004021EE   7D 27            JGE SHORT app5win.00402217
004021F0   8D0C52           LEA ECX,DWORD PTR DS:[EDX+EDX*2]
004021F3   C1E1 02          SHL ECX,2
004021F6   8B7E 50          /MOV EDI,DWORD PTR DS:[ESI+50]
004021F9   83C1 0C          |ADD ECX,0C
004021FC   836439 FC 00     |AND DWORD PTR DS:[ECX+EDI-4],0
00402201   8B3D 88734000    |MOV EDI,DWORD PTR DS:[407388]
00402207   8B1D 8C734000    |MOV EBX,DWORD PTR DS:[40738C]
0040220D   42               |INC EDX
0040220E   03DF             |ADD EBX,EDI
00402210   3BD3             |CMP EDX,EBX
00402212  ^7C E2            \JL SHORT app5win.004021F6
00402214   8B5D 08          MOV EBX,DWORD PTR SS:[EBP+8]
00402217   8B00             MOV EAX,DWORD PTR DS:[EAX]
00402219   8B7E 58          MOV EDI,DWORD PTR DS:[ESI+58]
0040221C   3D 8E0000C0      CMP EAX,C000008E
00402221   75 09            JNZ SHORT app5win.0040222C
00402223   C746 58 83000000 MOV DWORD PTR DS:[ESI+58],83
0040222A   EB 5E            JMP SHORT app5win.0040228A
0040222C   3D 900000C0      CMP EAX,C0000090
00402231   75 09            JNZ SHORT app5win.0040223C
00402233   C746 58 81000000 MOV DWORD PTR DS:[ESI+58],81
0040223A   EB 4E            JMP SHORT app5win.0040228A
0040223C   3D 910000C0      CMP EAX,C0000091
00402241   75 09            JNZ SHORT app5win.0040224C
00402243   C746 58 84000000 MOV DWORD PTR DS:[ESI+58],84
0040224A   EB 3E            JMP SHORT app5win.0040228A
0040224C   3D 930000C0      CMP EAX,C0000093
00402251   75 09            JNZ SHORT app5win.0040225C
00402253   C746 58 85000000 MOV DWORD PTR DS:[ESI+58],85
0040225A   EB 2E            JMP SHORT app5win.0040228A
0040225C   3D 8D0000C0      CMP EAX,C000008D
00402261   75 09            JNZ SHORT app5win.0040226C
00402263   C746 58 82000000 MOV DWORD PTR DS:[ESI+58],82
0040226A   EB 1E            JMP SHORT app5win.0040228A
0040226C   3D 8F0000C0      CMP EAX,C000008F
00402271   75 09            JNZ SHORT app5win.0040227C
00402273   C746 58 86000000 MOV DWORD PTR DS:[ESI+58],86
0040227A   EB 0E            JMP SHORT app5win.0040228A
0040227C   3D 920000C0      CMP EAX,C0000092
00402281   75 07            JNZ SHORT app5win.0040228A
00402283   C746 58 8A000000 MOV DWORD PTR DS:[ESI+58],8A
0040228A   FF76 58          PUSH DWORD PTR DS:[ESI+58]
0040228D   6A 08            PUSH 8
0040228F   FFD3             CALL EBX
00402291   59               POP ECX
00402292   897E 58          MOV DWORD PTR DS:[ESI+58],EDI
00402295   59               POP ECX
00402296   5F               POP EDI
00402297   EB 08            JMP SHORT app5win.004022A1
00402299   8360 08 00       AND DWORD PTR DS:[EAX+8],0
0040229D   51               PUSH ECX
0040229E   FFD3             CALL EBX
004022A0   59               POP ECX
004022A1   8B45 FC          MOV EAX,DWORD PTR SS:[EBP-4]
004022A4   8946 54          MOV DWORD PTR DS:[ESI+54],EAX
004022A7   83C8 FF          OR EAX,FFFFFFFF
004022AA   EB 09            JMP SHORT app5win.004022B5
004022AC   FF75 0C          PUSH DWORD PTR SS:[EBP+C]
004022AF   FF15 1C604000    CALL DWORD PTR DS:[<&KERNEL32.UnhandledE>; kernel32.UnhandledExceptionFilter
004022B5   5E               POP ESI
004022B6   5B               POP EBX
004022B7   C9               LEAVE
004022B8   C3               RETN
004022B9   8B5424 08        MOV EDX,DWORD PTR SS:[ESP+8]
004022BD   8B0D 94734000    MOV ECX,DWORD PTR DS:[407394]
004022C3   56               PUSH ESI
004022C4   8B7424 08        MOV ESI,DWORD PTR SS:[ESP+8]
004022C8   3932             CMP DWORD PTR DS:[EDX],ESI
004022CA   57               PUSH EDI
004022CB   8BC2             MOV EAX,EDX
004022CD   74 11            JE SHORT app5win.004022E0
004022CF   8D3C49           LEA EDI,DWORD PTR DS:[ECX+ECX*2]
004022D2   8D3CBA           LEA EDI,DWORD PTR DS:[EDX+EDI*4]
004022D5   83C0 0C          /ADD EAX,0C
004022D8   3BC7             |CMP EAX,EDI
004022DA   73 04            |JNB SHORT app5win.004022E0
004022DC   3930             |CMP DWORD PTR DS:[EAX],ESI
004022DE  ^75 F5            \JNZ SHORT app5win.004022D5
004022E0   8D0C49           LEA ECX,DWORD PTR DS:[ECX+ECX*2]
004022E3   8D0C8A           LEA ECX,DWORD PTR DS:[EDX+ECX*4]
004022E6   3BC1             CMP EAX,ECX
004022E8   73 04            JNB SHORT app5win.004022EE
004022EA   3930             CMP DWORD PTR DS:[EAX],ESI
004022EC   74 02            JE SHORT app5win.004022F0
004022EE   33C0             XOR EAX,EAX
004022F0   5F               POP EDI
004022F1   5E               POP ESI
004022F2   C3               RETN
004022F3   53               PUSH EBX
004022F4   33DB             XOR EBX,EBX
004022F6   391D C8834000    CMP DWORD PTR DS:[4083C8],EBX
004022FC   56               PUSH ESI
004022FD   57               PUSH EDI
004022FE   75 05            JNZ SHORT app5win.00402305
00402300   E8 C31B0000      CALL app5win.00403EC8
00402305   8B35 107D4000    MOV ESI,DWORD PTR DS:[407D10]
0040230B   33FF             XOR EDI,EDI
0040230D   8A06             /MOV AL,BYTE PTR DS:[ESI]
0040230F   3AC3             |CMP AL,BL
00402311   74 12            |JE SHORT app5win.00402325
00402313   3C 3D            |CMP AL,3D
00402315   74 01            |JE SHORT app5win.00402318
00402317   47               |INC EDI
00402318   56               |PUSH ESI
00402319   E8 C2FCFFFF      |CALL app5win.00401FE0
0040231E   59               |POP ECX
0040231F   8D7406 01        |LEA ESI,DWORD PTR DS:[ESI+EAX+1]
00402323  ^EB E8            \JMP SHORT app5win.0040230D
00402325   8D04BD 04000000  LEA EAX,DWORD PTR DS:[EDI*4+4]
0040232C   50               PUSH EAX
0040232D   E8 020D0000      CALL app5win.00403034
00402332   8BF0             MOV ESI,EAX
00402334   59               POP ECX
00402335   3BF3             CMP ESI,EBX
00402337   8935 487D4000    MOV DWORD PTR DS:[407D48],ESI
0040233D   75 08            JNZ SHORT app5win.00402347
0040233F   6A 09            PUSH 9
00402341   E8 CAEFFFFF      CALL app5win.00401310
00402346   59               POP ECX
00402347   8B3D 107D4000    MOV EDI,DWORD PTR DS:[407D10]
0040234D   381F             CMP BYTE PTR DS:[EDI],BL
0040234F   74 39            JE SHORT app5win.0040238A
00402351   55               PUSH EBP
00402352   57               /PUSH EDI
00402353   E8 88FCFFFF      |CALL app5win.00401FE0
00402358   8BE8             |MOV EBP,EAX
0040235A   59               |POP ECX
0040235B   45               |INC EBP
0040235C   803F 3D          |CMP BYTE PTR DS:[EDI],3D
0040235F   74 22            |JE SHORT app5win.00402383
00402361   55               |PUSH EBP
00402362   E8 CD0C0000      |CALL app5win.00403034
00402367   3BC3             |CMP EAX,EBX
00402369   59               |POP ECX
0040236A   8906             |MOV DWORD PTR DS:[ESI],EAX
0040236C   75 08            |JNZ SHORT app5win.00402376
0040236E   6A 09            |PUSH 9
00402370   E8 9BEFFFFF      |CALL app5win.00401310
00402375   59               |POP ECX
00402376   57               |PUSH EDI
00402377   FF36             |PUSH DWORD PTR DS:[ESI]
00402379   E8 82160000      |CALL app5win.00403A00
0040237E   59               |POP ECX
0040237F   83C6 04          |ADD ESI,4
00402382   59               |POP ECX
00402383   03FD             |ADD EDI,EBP
00402385   381F             |CMP BYTE PTR DS:[EDI],BL
00402387  ^75 C9            \JNZ SHORT app5win.00402352
00402389   5D               POP EBP
0040238A   FF35 107D4000    PUSH DWORD PTR DS:[407D10]
00402390   E8 20160000      CALL app5win.004039B5
00402395   59               POP ECX
00402396   891D 107D4000    MOV DWORD PTR DS:[407D10],EBX
0040239C   891E             MOV DWORD PTR DS:[ESI],EBX
0040239E   5F               POP EDI
0040239F   5E               POP ESI
004023A0   C705 C4834000 01>MOV DWORD PTR DS:[4083C4],1
004023AA   5B               POP EBX
004023AB   C3               RETN
004023AC   55               PUSH EBP
004023AD   8BEC             MOV EBP,ESP
004023AF   51               PUSH ECX
004023B0   51               PUSH ECX
004023B1   53               PUSH EBX
004023B2   33DB             XOR EBX,EBX
004023B4   391D C8834000    CMP DWORD PTR DS:[4083C8],EBX
004023BA   56               PUSH ESI
004023BB   57               PUSH EDI
004023BC   75 05            JNZ SHORT app5win.004023C3
004023BE   E8 051B0000      CALL app5win.00403EC8
004023C3   BE 6C7D4000      MOV ESI,app5win.00407D6C                 ; ASCII "C:\Users\Allaf\Desktop\hacky\app5win.exe"
004023C8   68 04010000      PUSH 104
004023CD   56               PUSH ESI
004023CE   53               PUSH EBX
004023CF   FF15 20604000    CALL DWORD PTR DS:[<&KERNEL32.GetModuleF>; kernel32.GetModuleFileNameA
004023D5   A1 E4934000      MOV EAX,DWORD PTR DS:[4093E4]
004023DA   8935 587D4000    MOV DWORD PTR DS:[407D58],ESI
004023E0   8BFE             MOV EDI,ESI
004023E2   3818             CMP BYTE PTR DS:[EAX],BL
004023E4   74 02            JE SHORT app5win.004023E8
004023E6   8BF8             MOV EDI,EAX
004023E8   8D45 F8          LEA EAX,DWORD PTR SS:[EBP-8]
004023EB   50               PUSH EAX
004023EC   8D45 FC          LEA EAX,DWORD PTR SS:[EBP-4]
004023EF   50               PUSH EAX
004023F0   53               PUSH EBX
004023F1   53               PUSH EBX
004023F2   57               PUSH EDI
004023F3   E8 4D000000      CALL app5win.00402445
004023F8   8B45 F8          MOV EAX,DWORD PTR SS:[EBP-8]
004023FB   8B4D FC          MOV ECX,DWORD PTR SS:[EBP-4]
004023FE   8D0488           LEA EAX,DWORD PTR DS:[EAX+ECX*4]
00402401   50               PUSH EAX
00402402   E8 2D0C0000      CALL app5win.00403034
00402407   8BF0             MOV ESI,EAX
00402409   83C4 18          ADD ESP,18
0040240C   3BF3             CMP ESI,EBX
0040240E   75 08            JNZ SHORT app5win.00402418
00402410   6A 08            PUSH 8
00402412   E8 F9EEFFFF      CALL app5win.00401310
00402417   59               POP ECX
00402418   8D45 F8          LEA EAX,DWORD PTR SS:[EBP-8]
0040241B   50               PUSH EAX
0040241C   8D45 FC          LEA EAX,DWORD PTR SS:[EBP-4]
0040241F   50               PUSH EAX
00402420   8B45 FC          MOV EAX,DWORD PTR SS:[EBP-4]
00402423   8D0486           LEA EAX,DWORD PTR DS:[ESI+EAX*4]
00402426   50               PUSH EAX
00402427   56               PUSH ESI
00402428   57               PUSH EDI
00402429   E8 17000000      CALL app5win.00402445
0040242E   8B45 FC          MOV EAX,DWORD PTR SS:[EBP-4]
00402431   83C4 14          ADD ESP,14
00402434   48               DEC EAX
00402435   8935 407D4000    MOV DWORD PTR DS:[407D40],ESI
0040243B   5F               POP EDI
0040243C   5E               POP ESI
0040243D   A3 3C7D4000      MOV DWORD PTR DS:[407D3C],EAX
00402442   5B               POP EBX
00402443   C9               LEAVE
00402444   C3               RETN
00402445   55               PUSH EBP
00402446   8BEC             MOV EBP,ESP
00402448   8B4D 18          MOV ECX,DWORD PTR SS:[EBP+18]
0040244B   8B45 14          MOV EAX,DWORD PTR SS:[EBP+14]
0040244E   53               PUSH EBX
0040244F   56               PUSH ESI
00402450   8321 00          AND DWORD PTR DS:[ECX],0
00402453   8B75 10          MOV ESI,DWORD PTR SS:[EBP+10]
00402456   57               PUSH EDI
00402457   8B7D 0C          MOV EDI,DWORD PTR SS:[EBP+C]
0040245A   C700 01000000    MOV DWORD PTR DS:[EAX],1
00402460   8B45 08          MOV EAX,DWORD PTR SS:[EBP+8]
00402463   85FF             TEST EDI,EDI
00402465   74 08            JE SHORT app5win.0040246F
00402467   8937             MOV DWORD PTR DS:[EDI],ESI
00402469   83C7 04          ADD EDI,4
0040246C   897D 0C          MOV DWORD PTR SS:[EBP+C],EDI
0040246F   8038 22          CMP BYTE PTR DS:[EAX],22
00402472   75 44            JNZ SHORT app5win.004024B8
00402474   8A50 01          /MOV DL,BYTE PTR DS:[EAX+1]
00402477   40               |INC EAX
00402478   80FA 22          |CMP DL,22
0040247B   74 29            |JE SHORT app5win.004024A6
0040247D   84D2             |TEST DL,DL
0040247F   74 25            |JE SHORT app5win.004024A6
00402481   0FB6D2           |MOVZX EDX,DL
00402484   F682 A1814000 04 |TEST BYTE PTR DS:[EDX+4081A1],4
0040248B   74 0C            |JE SHORT app5win.00402499
0040248D   FF01             |INC DWORD PTR DS:[ECX]
0040248F   85F6             |TEST ESI,ESI
00402491   74 06            |JE SHORT app5win.00402499
00402493   8A10             |MOV DL,BYTE PTR DS:[EAX]
00402495   8816             |MOV BYTE PTR DS:[ESI],DL
00402497   46               |INC ESI
00402498   40               |INC EAX
00402499   FF01             |INC DWORD PTR DS:[ECX]
0040249B   85F6             |TEST ESI,ESI
0040249D  ^74 D5            |JE SHORT app5win.00402474
0040249F   8A10             |MOV DL,BYTE PTR DS:[EAX]
004024A1   8816             |MOV BYTE PTR DS:[ESI],DL
004024A3   46               |INC ESI
004024A4  ^EB CE            \JMP SHORT app5win.00402474
004024A6   FF01             INC DWORD PTR DS:[ECX]
004024A8   85F6             TEST ESI,ESI
004024AA   74 04            JE SHORT app5win.004024B0
004024AC   8026 00          AND BYTE PTR DS:[ESI],0
004024AF   46               INC ESI
004024B0   8038 22          CMP BYTE PTR DS:[EAX],22
004024B3   75 46            JNZ SHORT app5win.004024FB
004024B5   40               INC EAX
004024B6   EB 43            JMP SHORT app5win.004024FB
004024B8   FF01             /INC DWORD PTR DS:[ECX]
004024BA   85F6             |TEST ESI,ESI
004024BC   74 05            |JE SHORT app5win.004024C3
004024BE   8A10             |MOV DL,BYTE PTR DS:[EAX]
004024C0   8816             |MOV BYTE PTR DS:[ESI],DL
004024C2   46               |INC ESI
004024C3   8A10             |MOV DL,BYTE PTR DS:[EAX]
004024C5   40               |INC EAX
004024C6   0FB6DA           |MOVZX EBX,DL
004024C9   F683 A1814000 04 |TEST BYTE PTR DS:[EBX+4081A1],4
004024D0   74 0C            |JE SHORT app5win.004024DE
004024D2   FF01             |INC DWORD PTR DS:[ECX]
004024D4   85F6             |TEST ESI,ESI
004024D6   74 05            |JE SHORT app5win.004024DD
004024D8   8A18             |MOV BL,BYTE PTR DS:[EAX]
004024DA   881E             |MOV BYTE PTR DS:[ESI],BL
004024DC   46               |INC ESI
004024DD   40               |INC EAX
004024DE   80FA 20          |CMP DL,20
004024E1   74 09            |JE SHORT app5win.004024EC
004024E3   84D2             |TEST DL,DL
004024E5   74 09            |JE SHORT app5win.004024F0
004024E7   80FA 09          |CMP DL,9
004024EA  ^75 CC            \JNZ SHORT app5win.004024B8
004024EC   84D2             TEST DL,DL
004024EE   75 03            JNZ SHORT app5win.004024F3
004024F0   48               DEC EAX
004024F1   EB 08            JMP SHORT app5win.004024FB
004024F3   85F6             TEST ESI,ESI
004024F5   74 04            JE SHORT app5win.004024FB
004024F7   8066 FF 00       AND BYTE PTR DS:[ESI-1],0
004024FB   8365 18 00       AND DWORD PTR SS:[EBP+18],0
004024FF   8038 00          /CMP BYTE PTR DS:[EAX],0
00402502   0F84 E0000000    |JE app5win.004025E8
00402508   8A10             |/MOV DL,BYTE PTR DS:[EAX]
0040250A   80FA 20          ||CMP DL,20
0040250D   74 05            ||JE SHORT app5win.00402514
0040250F   80FA 09          ||CMP DL,9
00402512   75 03            ||JNZ SHORT app5win.00402517
00402514   40               ||INC EAX
00402515  ^EB F1            |\JMP SHORT app5win.00402508
00402517   8038 00          |CMP BYTE PTR DS:[EAX],0
0040251A   0F84 C8000000    |JE app5win.004025E8
00402520   85FF             |TEST EDI,EDI
00402522   74 08            |JE SHORT app5win.0040252C
00402524   8937             |MOV DWORD PTR DS:[EDI],ESI
00402526   83C7 04          |ADD EDI,4
00402529   897D 0C          |MOV DWORD PTR SS:[EBP+C],EDI
0040252C   8B55 14          |MOV EDX,DWORD PTR SS:[EBP+14]
0040252F   FF02             |INC DWORD PTR DS:[EDX]
00402531   C745 08 01000000 |/MOV DWORD PTR SS:[EBP+8],1
00402538   33DB             ||XOR EBX,EBX
0040253A   8038 5C          ||/CMP BYTE PTR DS:[EAX],5C
0040253D   75 04            |||JNZ SHORT app5win.00402543
0040253F   40               |||INC EAX
00402540   43               |||INC EBX
00402541  ^EB F7            ||\JMP SHORT app5win.0040253A
00402543   8038 22          ||CMP BYTE PTR DS:[EAX],22
00402546   75 2C            ||JNZ SHORT app5win.00402574
00402548   F6C3 01          ||TEST BL,1
0040254B   75 25            ||JNZ SHORT app5win.00402572
0040254D   33FF             ||XOR EDI,EDI
0040254F   397D 18          ||CMP DWORD PTR SS:[EBP+18],EDI
00402552   74 0D            ||JE SHORT app5win.00402561
00402554   8078 01 22       ||CMP BYTE PTR DS:[EAX+1],22
00402558   8D50 01          ||LEA EDX,DWORD PTR DS:[EAX+1]
0040255B   75 04            ||JNZ SHORT app5win.00402561
0040255D   8BC2             ||MOV EAX,EDX
0040255F   EB 03            ||JMP SHORT app5win.00402564
00402561   897D 08          ||MOV DWORD PTR SS:[EBP+8],EDI
00402564   8B7D 0C          ||MOV EDI,DWORD PTR SS:[EBP+C]
00402567   33D2             ||XOR EDX,EDX
00402569   3955 18          ||CMP DWORD PTR SS:[EBP+18],EDX
0040256C   0F94C2           ||SETE DL
0040256F   8955 18          ||MOV DWORD PTR SS:[EBP+18],EDX
00402572   D1EB             ||SHR EBX,1
00402574   8BD3             ||MOV EDX,EBX
00402576   4B               ||DEC EBX
00402577   85D2             ||TEST EDX,EDX
00402579   74 0E            ||JE SHORT app5win.00402589
0040257B   43               ||INC EBX
0040257C   85F6             ||/TEST ESI,ESI
0040257E   74 04            |||JE SHORT app5win.00402584
00402580   C606 5C          |||MOV BYTE PTR DS:[ESI],5C
00402583   46               |||INC ESI
00402584   FF01             |||INC DWORD PTR DS:[ECX]
00402586   4B               |||DEC EBX
00402587  ^75 F3            ||\JNZ SHORT app5win.0040257C
00402589   8A10             ||MOV DL,BYTE PTR DS:[EAX]
0040258B   84D2             ||TEST DL,DL
0040258D   74 4A            ||JE SHORT app5win.004025D9
0040258F   837D 18 00       ||CMP DWORD PTR SS:[EBP+18],0
00402593   75 0A            ||JNZ SHORT app5win.0040259F
00402595   80FA 20          ||CMP DL,20
00402598   74 3F            ||JE SHORT app5win.004025D9
0040259A   80FA 09          ||CMP DL,9
0040259D   74 3A            ||JE SHORT app5win.004025D9
0040259F   837D 08 00       ||CMP DWORD PTR SS:[EBP+8],0
004025A3   74 2E            ||JE SHORT app5win.004025D3
004025A5   85F6             ||TEST ESI,ESI
004025A7   74 19            ||JE SHORT app5win.004025C2
004025A9   0FB6DA           ||MOVZX EBX,DL
004025AC   F683 A1814000 04 ||TEST BYTE PTR DS:[EBX+4081A1],4
004025B3   74 06            ||JE SHORT app5win.004025BB
004025B5   8816             ||MOV BYTE PTR DS:[ESI],DL
004025B7   46               ||INC ESI
004025B8   40               ||INC EAX
004025B9   FF01             ||INC DWORD PTR DS:[ECX]
004025BB   8A10             ||MOV DL,BYTE PTR DS:[EAX]
004025BD   8816             ||MOV BYTE PTR DS:[ESI],DL
004025BF   46               ||INC ESI
004025C0   EB 0F            ||JMP SHORT app5win.004025D1
004025C2   0FB6D2           ||MOVZX EDX,DL
004025C5   F682 A1814000 04 ||TEST BYTE PTR DS:[EDX+4081A1],4
004025CC   74 03            ||JE SHORT app5win.004025D1
004025CE   40               ||INC EAX
004025CF   FF01             ||INC DWORD PTR DS:[ECX]
004025D1   FF01             ||INC DWORD PTR DS:[ECX]
004025D3   40               ||INC EAX
004025D4  ^E9 58FFFFFF      |\JMP app5win.00402531
004025D9   85F6             |TEST ESI,ESI
004025DB   74 04            |JE SHORT app5win.004025E1
004025DD   8026 00          |AND BYTE PTR DS:[ESI],0
004025E0   46               |INC ESI
004025E1   FF01             |INC DWORD PTR DS:[ECX]
004025E3  ^E9 17FFFFFF      \JMP app5win.004024FF
004025E8   85FF             TEST EDI,EDI
004025EA   74 03            JE SHORT app5win.004025EF
004025EC   8327 00          AND DWORD PTR DS:[EDI],0
004025EF   8B45 14          MOV EAX,DWORD PTR SS:[EBP+14]
004025F2   5F               POP EDI
004025F3   5E               POP ESI
004025F4   5B               POP EBX
004025F5   FF00             INC DWORD PTR DS:[EAX]
004025F7   5D               POP EBP
004025F8   C3               RETN
004025F9   51               PUSH ECX
004025FA   51               PUSH ECX
004025FB   A1 707E4000      MOV EAX,DWORD PTR DS:[407E70]
00402600   53               PUSH EBX
00402601   55               PUSH EBP
00402602   8B2D 34604000    MOV EBP,DWORD PTR DS:[<&KERNEL32.GetEnvi>; kernel32.GetEnvironmentStringsW
00402608   56               PUSH ESI
00402609   57               PUSH EDI
0040260A   33DB             XOR EBX,EBX
0040260C   33F6             XOR ESI,ESI
0040260E   33FF             XOR EDI,EDI
00402610   3BC3             CMP EAX,EBX
00402612   75 33            JNZ SHORT app5win.00402647
00402614   FFD5             CALL EBP
00402616   8BF0             MOV ESI,EAX
00402618   3BF3             CMP ESI,EBX
0040261A   74 0C            JE SHORT app5win.00402628
0040261C   C705 707E4000 01>MOV DWORD PTR DS:[407E70],1
00402626   EB 28            JMP SHORT app5win.00402650
00402628   FF15 30604000    CALL DWORD PTR DS:[<&KERNEL32.GetEnviron>; kernel32.GetEnvironmentStrings
0040262E   8BF8             MOV EDI,EAX
00402630   3BFB             CMP EDI,EBX
00402632   0F84 EA000000    JE app5win.00402722
00402638   C705 707E4000 02>MOV DWORD PTR DS:[407E70],2
00402642   E9 8F000000      JMP app5win.004026D6
00402647   83F8 01          CMP EAX,1
0040264A   0F85 81000000    JNZ app5win.004026D1
00402650   3BF3             CMP ESI,EBX
00402652   75 0C            JNZ SHORT app5win.00402660
00402654   FFD5             CALL EBP
00402656   8BF0             MOV ESI,EAX
00402658   3BF3             CMP ESI,EBX
0040265A   0F84 C2000000    JE app5win.00402722
00402660   66:391E          CMP WORD PTR DS:[ESI],BX
00402663   8BC6             MOV EAX,ESI
00402665   74 0E            JE SHORT app5win.00402675
00402667   40               /INC EAX
00402668   40               |INC EAX
00402669   66:3918          |CMP WORD PTR DS:[EAX],BX
0040266C  ^75 F9            |JNZ SHORT app5win.00402667
0040266E   40               |INC EAX
0040266F   40               |INC EAX
00402670   66:3918          |CMP WORD PTR DS:[EAX],BX
00402673  ^75 F2            \JNZ SHORT app5win.00402667
00402675   2BC6             SUB EAX,ESI
00402677   8B3D 2C604000    MOV EDI,DWORD PTR DS:[<&KERNEL32.WideCha>; kernel32.WideCharToMultiByte
0040267D   D1F8             SAR EAX,1
0040267F   53               PUSH EBX
00402680   53               PUSH EBX
00402681   40               INC EAX
00402682   53               PUSH EBX
00402683   53               PUSH EBX
00402684   50               PUSH EAX
00402685   56               PUSH ESI
00402686   53               PUSH EBX
00402687   53               PUSH EBX
00402688   894424 34        MOV DWORD PTR SS:[ESP+34],EAX
0040268C   FFD7             CALL EDI
0040268E   8BE8             MOV EBP,EAX
00402690   3BEB             CMP EBP,EBX
00402692   74 32            JE SHORT app5win.004026C6
00402694   55               PUSH EBP
00402695   E8 9A090000      CALL app5win.00403034
0040269A   3BC3             CMP EAX,EBX
0040269C   59               POP ECX
0040269D   894424 10        MOV DWORD PTR SS:[ESP+10],EAX
004026A1   74 23            JE SHORT app5win.004026C6
004026A3   53               PUSH EBX
004026A4   53               PUSH EBX
004026A5   55               PUSH EBP
004026A6   50               PUSH EAX
004026A7   FF7424 24        PUSH DWORD PTR SS:[ESP+24]
004026AB   56               PUSH ESI
004026AC   53               PUSH EBX
004026AD   53               PUSH EBX
004026AE   FFD7             CALL EDI
004026B0   85C0             TEST EAX,EAX
004026B2   75 0E            JNZ SHORT app5win.004026C2
004026B4   FF7424 10        PUSH DWORD PTR SS:[ESP+10]
004026B8   E8 F8120000      CALL app5win.004039B5
004026BD   59               POP ECX
004026BE   895C24 10        MOV DWORD PTR SS:[ESP+10],EBX
004026C2   8B5C24 10        MOV EBX,DWORD PTR SS:[ESP+10]
004026C6   56               PUSH ESI
004026C7   FF15 28604000    CALL DWORD PTR DS:[<&KERNEL32.FreeEnviro>; kernel32.FreeEnvironmentStringsW
004026CD   8BC3             MOV EAX,EBX
004026CF   EB 53            JMP SHORT app5win.00402724
004026D1   83F8 02          CMP EAX,2
004026D4   75 4C            JNZ SHORT app5win.00402722
004026D6   3BFB             CMP EDI,EBX
004026D8   75 0C            JNZ SHORT app5win.004026E6
004026DA   FF15 30604000    CALL DWORD PTR DS:[<&KERNEL32.GetEnviron>; kernel32.GetEnvironmentStrings
004026E0   8BF8             MOV EDI,EAX
004026E2   3BFB             CMP EDI,EBX
004026E4   74 3C            JE SHORT app5win.00402722
004026E6   381F             CMP BYTE PTR DS:[EDI],BL
004026E8   8BC7             MOV EAX,EDI
004026EA   74 0A            JE SHORT app5win.004026F6
004026EC   40               /INC EAX
004026ED   3818             |CMP BYTE PTR DS:[EAX],BL
004026EF  ^75 FB            |JNZ SHORT app5win.004026EC
004026F1   40               |INC EAX
004026F2   3818             |CMP BYTE PTR DS:[EAX],BL
004026F4  ^75 F6            \JNZ SHORT app5win.004026EC
004026F6   2BC7             SUB EAX,EDI
004026F8   40               INC EAX
004026F9   8BE8             MOV EBP,EAX
004026FB   55               PUSH EBP
004026FC   E8 33090000      CALL app5win.00403034
00402701   8BF0             MOV ESI,EAX
00402703   59               POP ECX
00402704   3BF3             CMP ESI,EBX
00402706   75 04            JNZ SHORT app5win.0040270C
00402708   33F6             XOR ESI,ESI
0040270A   EB 0B            JMP SHORT app5win.00402717
0040270C   55               PUSH EBP
0040270D   57               PUSH EDI
0040270E   56               PUSH ESI
0040270F   E8 6C0F0000      CALL app5win.00403680
00402714   83C4 0C          ADD ESP,0C
00402717   57               PUSH EDI
00402718   FF15 24604000    CALL DWORD PTR DS:[<&KERNEL32.FreeEnviro>; kernel32.FreeEnvironmentStringsA
0040271E   8BC6             MOV EAX,ESI
00402720   EB 02            JMP SHORT app5win.00402724
00402722   33C0             XOR EAX,EAX
00402724   5F               POP EDI
00402725   5E               POP ESI
00402726   5D               POP EBP
00402727   5B               POP EBX
00402728   59               POP ECX
00402729   59               POP ECX
0040272A   C3               RETN
0040272B   55               PUSH EBP
0040272C   8BEC             MOV EBP,ESP
0040272E   83EC 48          SUB ESP,48
00402731   53               PUSH EBX
00402732   56               PUSH ESI
00402733   57               PUSH EDI
00402734   68 80040000      PUSH 480
00402739   E8 F6080000      CALL app5win.00403034
0040273E   8BF0             MOV ESI,EAX
00402740   59               POP ECX
00402741   85F6             TEST ESI,ESI
00402743   75 08            JNZ SHORT app5win.0040274D
00402745   6A 1B            PUSH 1B
00402747   E8 C4EBFFFF      CALL app5win.00401310
0040274C   59               POP ECX
0040274D   8935 C0824000    MOV DWORD PTR DS:[4082C0],ESI
00402753   C705 C0834000 20>MOV DWORD PTR DS:[4083C0],20
0040275D   8D86 80040000    LEA EAX,DWORD PTR DS:[ESI+480]
00402763   3BF0             /CMP ESI,EAX
00402765   73 1E            |JNB SHORT app5win.00402785
00402767   8066 04 00       |AND BYTE PTR DS:[ESI+4],0
0040276B   830E FF          |OR DWORD PTR DS:[ESI],FFFFFFFF
0040276E   8366 08 00       |AND DWORD PTR DS:[ESI+8],0
00402772   C646 05 0A       |MOV BYTE PTR DS:[ESI+5],0A
00402776   A1 C0824000      |MOV EAX,DWORD PTR DS:[4082C0]
0040277B   83C6 24          |ADD ESI,24
0040277E   05 80040000      |ADD EAX,480
00402783  ^EB DE            \JMP SHORT app5win.00402763
00402785   8D45 B8          LEA EAX,DWORD PTR SS:[EBP-48]
00402788   50               PUSH EAX
00402789   FF15 44604000    CALL DWORD PTR DS:[<&KERNEL32.GetStartup>; kernel32.GetStartupInfoA
0040278F   66:837D EA 00    CMP WORD PTR SS:[EBP-16],0
00402794   0F84 D1000000    JE app5win.0040286B
0040279A   8B45 EC          MOV EAX,DWORD PTR SS:[EBP-14]
0040279D   85C0             TEST EAX,EAX
0040279F   0F84 C6000000    JE app5win.0040286B
004027A5   8B38             MOV EDI,DWORD PTR DS:[EAX]
004027A7   8D58 04          LEA EBX,DWORD PTR DS:[EAX+4]
004027AA   8D043B           LEA EAX,DWORD PTR DS:[EBX+EDI]
004027AD   8945 FC          MOV DWORD PTR SS:[EBP-4],EAX
004027B0   B8 00080000      MOV EAX,800
004027B5   3BF8             CMP EDI,EAX
004027B7   7C 02            JL SHORT app5win.004027BB
004027B9   8BF8             MOV EDI,EAX
004027BB   393D C0834000    CMP DWORD PTR DS:[4083C0],EDI
004027C1   7D 56            JGE SHORT app5win.00402819
004027C3   BE C4824000      MOV ESI,app5win.004082C4
004027C8   68 80040000      /PUSH 480
004027CD   E8 62080000      |CALL app5win.00403034
004027D2   85C0             |TEST EAX,EAX
004027D4   59               |POP ECX
004027D5   74 3C            |JE SHORT app5win.00402813
004027D7   8305 C0834000 20 |ADD DWORD PTR DS:[4083C0],20
004027DE   8906             |MOV DWORD PTR DS:[ESI],EAX
004027E0   8D88 80040000    |LEA ECX,DWORD PTR DS:[EAX+480]
004027E6   3BC1             |/CMP EAX,ECX
004027E8   73 1C            ||JNB SHORT app5win.00402806
004027EA   8060 04 00       ||AND BYTE PTR DS:[EAX+4],0
004027EE   8308 FF          ||OR DWORD PTR DS:[EAX],FFFFFFFF
004027F1   8360 08 00       ||AND DWORD PTR DS:[EAX+8],0
004027F5   C640 05 0A       ||MOV BYTE PTR DS:[EAX+5],0A
004027F9   8B0E             ||MOV ECX,DWORD PTR DS:[ESI]
004027FB   83C0 24          ||ADD EAX,24
004027FE   81C1 80040000    ||ADD ECX,480
00402804  ^EB E0            |\JMP SHORT app5win.004027E6
00402806   83C6 04          |ADD ESI,4
00402809   393D C0834000    |CMP DWORD PTR DS:[4083C0],EDI
0040280F  ^7C B7            \JL SHORT app5win.004027C8
00402811   EB 06            JMP SHORT app5win.00402819
00402813   8B3D C0834000    MOV EDI,DWORD PTR DS:[4083C0]
00402819   33F6             XOR ESI,ESI
0040281B   85FF             TEST EDI,EDI
0040281D   7E 4C            JLE SHORT app5win.0040286B
0040281F   8B45 FC          /MOV EAX,DWORD PTR SS:[EBP-4]
00402822   8B08             |MOV ECX,DWORD PTR DS:[EAX]
00402824   83F9 FF          |CMP ECX,-1
00402827   74 38            |JE SHORT app5win.00402861
00402829   8A03             |MOV AL,BYTE PTR DS:[EBX]
0040282B   A8 01            |TEST AL,1
0040282D   74 32            |JE SHORT app5win.00402861
0040282F   A8 08            |TEST AL,8
00402831   75 0B            |JNZ SHORT app5win.0040283E
00402833   51               |PUSH ECX
00402834   FF15 40604000    |CALL DWORD PTR DS:[<&KERNEL32.GetFileTy>; kernel32.GetFileType
0040283A   85C0             |TEST EAX,EAX
0040283C   74 23            |JE SHORT app5win.00402861
0040283E   8BCE             |MOV ECX,ESI
00402840   8BC6             |MOV EAX,ESI
00402842   C1F9 05          |SAR ECX,5
00402845   83E0 1F          |AND EAX,1F
00402848   8B0C8D C0824000  |MOV ECX,DWORD PTR DS:[ECX*4+4082C0]
0040284F   8D04C0           |LEA EAX,DWORD PTR DS:[EAX+EAX*8]
00402852   8D0481           |LEA EAX,DWORD PTR DS:[ECX+EAX*4]
00402855   8B4D FC          |MOV ECX,DWORD PTR SS:[EBP-4]
00402858   8B09             |MOV ECX,DWORD PTR DS:[ECX]
0040285A   8908             |MOV DWORD PTR DS:[EAX],ECX
0040285C   8A0B             |MOV CL,BYTE PTR DS:[EBX]
0040285E   8848 04          |MOV BYTE PTR DS:[EAX+4],CL
00402861   8345 FC 04       |ADD DWORD PTR SS:[EBP-4],4
00402865   46               |INC ESI
00402866   43               |INC EBX
00402867   3BF7             |CMP ESI,EDI
00402869  ^7C B4            \JL SHORT app5win.0040281F
0040286B   33DB             XOR EBX,EBX
0040286D   8B0D C0824000    /MOV ECX,DWORD PTR DS:[4082C0]
00402873   8D04DB           |LEA EAX,DWORD PTR DS:[EBX+EBX*8]
00402876   833C81 FF        |CMP DWORD PTR DS:[ECX+EAX*4],-1
0040287A   8D3481           |LEA ESI,DWORD PTR DS:[ECX+EAX*4]
0040287D   75 4D            |JNZ SHORT app5win.004028CC
0040287F   85DB             |TEST EBX,EBX
00402881   C646 04 81       |MOV BYTE PTR DS:[ESI+4],81
00402885   75 05            |JNZ SHORT app5win.0040288C
00402887   6A F6            |PUSH -0A
00402889   58               |POP EAX
0040288A   EB 0A            |JMP SHORT app5win.00402896
0040288C   8BC3             |MOV EAX,EBX
0040288E   48               |DEC EAX
0040288F   F7D8             |NEG EAX
00402891   1BC0             |SBB EAX,EAX
00402893   83C0 F5          |ADD EAX,-0B
00402896   50               |PUSH EAX
00402897   FF15 3C604000    |CALL DWORD PTR DS:[<&KERNEL32.GetStdHan>; kernel32.GetStdHandle
0040289D   8BF8             |MOV EDI,EAX
0040289F   83FF FF          |CMP EDI,-1
004028A2   74 17            |JE SHORT app5win.004028BB
004028A4   57               |PUSH EDI
004028A5   FF15 40604000    |CALL DWORD PTR DS:[<&KERNEL32.GetFileTy>; kernel32.GetFileType
004028AB   85C0             |TEST EAX,EAX
004028AD   74 0C            |JE SHORT app5win.004028BB
004028AF   25 FF000000      |AND EAX,0FF
004028B4   893E             |MOV DWORD PTR DS:[ESI],EDI
004028B6   83F8 02          |CMP EAX,2
004028B9   75 06            |JNZ SHORT app5win.004028C1
004028BB   804E 04 40       |OR BYTE PTR DS:[ESI+4],40
004028BF   EB 0F            |JMP SHORT app5win.004028D0
004028C1   83F8 03          |CMP EAX,3
004028C4   75 0A            |JNZ SHORT app5win.004028D0
004028C6   804E 04 08       |OR BYTE PTR DS:[ESI+4],8
004028CA   EB 04            |JMP SHORT app5win.004028D0
004028CC   804E 04 80       |OR BYTE PTR DS:[ESI+4],80
004028D0   43               |INC EBX
004028D1   83FB 03          |CMP EBX,3
004028D4  ^7C 97            \JL SHORT app5win.0040286D
004028D6   FF35 C0834000    PUSH DWORD PTR DS:[4083C0]
004028DC   FF15 38604000    CALL DWORD PTR DS:[<&KERNEL32.SetHandleC>; kernel32.SetHandleCount
004028E2   5F               POP EDI
004028E3   5E               POP ESI
004028E4   5B               POP EBX
004028E5   C9               LEAVE
004028E6   C3               RETN
004028E7   56               PUSH ESI
004028E8   E8 A8060000      CALL app5win.00402F95
004028ED   FF15 54604000    CALL DWORD PTR DS:[<&KERNEL32.TlsAlloc>] ; kernel32.TlsAlloc
004028F3   83F8 FF          CMP EAX,-1
004028F6   A3 BC734000      MOV DWORD PTR DS:[4073BC],EAX
004028FB   74 3A            JE SHORT app5win.00402937
004028FD   6A 74            PUSH 74
004028FF   6A 01            PUSH 1
00402901   E8 4A040000      CALL app5win.00402D50
00402906   8BF0             MOV ESI,EAX
00402908   59               POP ECX
00402909   85F6             TEST ESI,ESI
0040290B   59               POP ECX
0040290C   74 29            JE SHORT app5win.00402937
0040290E   56               PUSH ESI
0040290F   FF35 BC734000    PUSH DWORD PTR DS:[4073BC]
00402915   FF15 50604000    CALL DWORD PTR DS:[<&KERNEL32.TlsSetValu>; kernel32.TlsSetValue
0040291B   85C0             TEST EAX,EAX
0040291D   74 18            JE SHORT app5win.00402937
0040291F   56               PUSH ESI
00402920   E8 16000000      CALL app5win.0040293B
00402925   59               POP ECX
00402926   FF15 4C604000    CALL DWORD PTR DS:[<&KERNEL32.GetCurrent>; kernel32.GetCurrentThreadId
0040292C   834E 04 FF       OR DWORD PTR DS:[ESI+4],FFFFFFFF
00402930   6A 01            PUSH 1
00402932   8906             MOV DWORD PTR DS:[ESI],EAX
00402934   58               POP EAX
00402935   5E               POP ESI
00402936   C3               RETN
00402937   33C0             XOR EAX,EAX
00402939   5E               POP ESI
0040293A   C3               RETN
0040293B   8B4424 04        MOV EAX,DWORD PTR SS:[ESP+4]
0040293F   C740 50 10734000 MOV DWORD PTR DS:[EAX+50],app5win.004073>
00402946   C740 14 01000000 MOV DWORD PTR DS:[EAX+14],1
0040294D   C3               RETN
0040294E   56               PUSH ESI
0040294F   57               PUSH EDI
00402950   FF15 60604000    CALL DWORD PTR DS:[<&KERNEL32.GetLastErr>; kernel32.GetLastError
00402956   FF35 BC734000    PUSH DWORD PTR DS:[4073BC]
0040295C   8BF8             MOV EDI,EAX
0040295E   FF15 5C604000    CALL DWORD PTR DS:[<&KERNEL32.TlsGetValu>; kernel32.TlsGetValue
00402964   8BF0             MOV ESI,EAX
00402966   85F6             TEST ESI,ESI
00402968   75 3F            JNZ SHORT app5win.004029A9
0040296A   6A 74            PUSH 74
0040296C   6A 01            PUSH 1
0040296E   E8 DD030000      CALL app5win.00402D50
00402973   8BF0             MOV ESI,EAX
00402975   59               POP ECX
00402976   85F6             TEST ESI,ESI
00402978   59               POP ECX
00402979   74 26            JE SHORT app5win.004029A1
0040297B   56               PUSH ESI
0040297C   FF35 BC734000    PUSH DWORD PTR DS:[4073BC]
00402982   FF15 50604000    CALL DWORD PTR DS:[<&KERNEL32.TlsSetValu>; kernel32.TlsSetValue
00402988   85C0             TEST EAX,EAX
0040298A   74 15            JE SHORT app5win.004029A1
0040298C   56               PUSH ESI
0040298D   E8 A9FFFFFF      CALL app5win.0040293B
00402992   59               POP ECX
00402993   FF15 4C604000    CALL DWORD PTR DS:[<&KERNEL32.GetCurrent>; kernel32.GetCurrentThreadId
00402999   834E 04 FF       OR DWORD PTR DS:[ESI+4],FFFFFFFF
0040299D   8906             MOV DWORD PTR DS:[ESI],EAX
0040299F   EB 08            JMP SHORT app5win.004029A9
004029A1   6A 10            PUSH 10
004029A3   E8 68E9FFFF      CALL app5win.00401310
004029A8   59               POP ECX
004029A9   57               PUSH EDI
004029AA   FF15 58604000    CALL DWORD PTR DS:[<&KERNEL32.SetLastErr>; kernel32.SetLastError
004029B0   8BC6             MOV EAX,ESI
004029B2   5F               POP EDI
004029B3   5E               POP ESI
004029B4   C3               RETN
004029B5   33C0             XOR EAX,EAX
004029B7   6A 00            PUSH 0
004029B9   394424 08        CMP DWORD PTR SS:[ESP+8],EAX
004029BD   68 00100000      PUSH 1000
004029C2   0F94C0           SETE AL
004029C5   50               PUSH EAX
004029C6   FF15 68604000    CALL DWORD PTR DS:[<&KERNEL32.HeapCreate>; kernel32.HeapCreate
004029CC   85C0             TEST EAX,EAX
004029CE   A3 A8824000      MOV DWORD PTR DS:[4082A8],EAX
004029D3   74 15            JE SHORT app5win.004029EA
004029D5   E8 0A150000      CALL app5win.00403EE4
004029DA   85C0             TEST EAX,EAX
004029DC   75 0F            JNZ SHORT app5win.004029ED
004029DE   FF35 A8824000    PUSH DWORD PTR DS:[4082A8]
004029E4   FF15 64604000    CALL DWORD PTR DS:[<&KERNEL32.HeapDestro>; kernel32.HeapDestroy
004029EA   33C0             XOR EAX,EAX
004029EC   C3               RETN
004029ED   6A 01            PUSH 1
004029EF   58               POP EAX
004029F0   C3               RETN
004029F1   CC               INT3
004029F2   CC               INT3
004029F3   CC               INT3
004029F4   55               PUSH EBP
004029F5   8BEC             MOV EBP,ESP
004029F7   53               PUSH EBX
004029F8   56               PUSH ESI
004029F9   57               PUSH EDI
004029FA   55               PUSH EBP
004029FB   6A 00            PUSH 0
004029FD   6A 00            PUSH 0
004029FF   68 0C2A4000      PUSH app5win.00402A0C
00402A04   FF75 08          PUSH DWORD PTR SS:[EBP+8]
00402A07   E8 70310000      CALL <JMP.&KERNEL32.RtlUnwind>
00402A0C   5D               POP EBP
00402A0D   5F               POP EDI
00402A0E   5E               POP ESI
00402A0F   5B               POP EBX
00402A10   8BE5             MOV ESP,EBP
00402A12   5D               POP EBP
00402A13   C3               RETN
00402A14   8B4C24 04        MOV ECX,DWORD PTR SS:[ESP+4]             ; Structured exception handler
00402A18   F741 04 06000000 TEST DWORD PTR DS:[ECX+4],6
00402A1F   B8 01000000      MOV EAX,1
00402A24   74 0F            JE SHORT app5win.00402A35
00402A26   8B4424 08        MOV EAX,DWORD PTR SS:[ESP+8]
00402A2A   8B5424 10        MOV EDX,DWORD PTR SS:[ESP+10]
00402A2E   8902             MOV DWORD PTR DS:[EDX],EAX
00402A30   B8 03000000      MOV EAX,3
00402A35   C3               RETN
00402A36   53               PUSH EBX
00402A37   56               PUSH ESI
00402A38   57               PUSH EDI
00402A39   8B4424 10        MOV EAX,DWORD PTR SS:[ESP+10]
00402A3D   50               PUSH EAX
00402A3E   6A FE            PUSH -2
00402A40   68 142A4000      PUSH app5win.00402A14                    ; SE handler installation
00402A45   64:FF35 00000000 PUSH DWORD PTR FS:[0]
00402A4C   64:8925 00000000 MOV DWORD PTR FS:[0],ESP
00402A53   8B4424 20        /MOV EAX,DWORD PTR SS:[ESP+20]
00402A57   8B58 08          |MOV EBX,DWORD PTR DS:[EAX+8]
00402A5A   8B70 0C          |MOV ESI,DWORD PTR DS:[EAX+C]
00402A5D   83FE FF          |CMP ESI,-1
00402A60   74 2E            |JE SHORT app5win.00402A90
00402A62   3B7424 24        |CMP ESI,DWORD PTR SS:[ESP+24]
00402A66   74 28            |JE SHORT app5win.00402A90
00402A68   8D3476           |LEA ESI,DWORD PTR DS:[ESI+ESI*2]
00402A6B   8B0CB3           |MOV ECX,DWORD PTR DS:[EBX+ESI*4]
00402A6E   894C24 08        |MOV DWORD PTR SS:[ESP+8],ECX
00402A72   8948 0C          |MOV DWORD PTR DS:[EAX+C],ECX
00402A75   837CB3 04 00     |CMP DWORD PTR DS:[EBX+ESI*4+4],0
00402A7A   75 12            |JNZ SHORT app5win.00402A8E
00402A7C   68 01010000      |PUSH 101
00402A81   8B44B3 08        |MOV EAX,DWORD PTR DS:[EBX+ESI*4+8]
00402A85   E8 40000000      |CALL app5win.00402ACA
00402A8A   FF54B3 08        |CALL DWORD PTR DS:[EBX+ESI*4+8]
00402A8E  ^EB C3            \JMP SHORT app5win.00402A53
00402A90   64:8F05 00000000 POP DWORD PTR FS:[0]
00402A97   83C4 0C          ADD ESP,0C
00402A9A   5F               POP EDI
00402A9B   5E               POP ESI
00402A9C   5B               POP EBX
00402A9D   C3               RETN
00402A9E   33C0             XOR EAX,EAX
00402AA0   64:8B0D 00000000 MOV ECX,DWORD PTR FS:[0]
00402AA7   8179 04 142A4000 CMP DWORD PTR DS:[ECX+4],app5win.00402A1>; Entry address
00402AAE   75 10            JNZ SHORT app5win.00402AC0
00402AB0   8B51 0C          MOV EDX,DWORD PTR DS:[ECX+C]
00402AB3   8B52 0C          MOV EDX,DWORD PTR DS:[EDX+C]
00402AB6   3951 08          CMP DWORD PTR DS:[ECX+8],EDX
00402AB9   75 05            JNZ SHORT app5win.00402AC0
00402ABB   B8 01000000      MOV EAX,1
00402AC0   C3               RETN
00402AC1   53               PUSH EBX
00402AC2   51               PUSH ECX
00402AC3   BB C4734000      MOV EBX,app5win.004073C4
00402AC8   EB 0A            JMP SHORT app5win.00402AD4
00402ACA   53               PUSH EBX
00402ACB   51               PUSH ECX
00402ACC   BB C4734000      MOV EBX,app5win.004073C4
00402AD1   8B4D 08          MOV ECX,DWORD PTR SS:[EBP+8]
00402AD4   894B 08          MOV DWORD PTR DS:[EBX+8],ECX
00402AD7   8943 04          MOV DWORD PTR DS:[EBX+4],EAX
00402ADA   896B 0C          MOV DWORD PTR DS:[EBX+C],EBP
00402ADD   59               POP ECX
00402ADE   5B               POP EBX
00402ADF   C2 0400          RETN 4
00402AE2   CC               INT3
00402AE3   CC               INT3
00402AE4   56               PUSH ESI
00402AE5   43               INC EBX
00402AE6   3230             XOR DH,BYTE PTR DS:[EAX]
00402AE8   58               POP EAX
00402AE9   43               INC EBX
00402AEA   3030             XOR BYTE PTR DS:[EAX],DH
00402AEC   55               PUSH EBP                                 ; Structured exception handler
00402AED   8BEC             MOV EBP,ESP
00402AEF   83EC 08          SUB ESP,8
00402AF2   53               PUSH EBX
00402AF3   56               PUSH ESI
00402AF4   57               PUSH EDI
00402AF5   55               PUSH EBP
00402AF6   FC               CLD
00402AF7   8B5D 0C          MOV EBX,DWORD PTR SS:[EBP+C]
00402AFA   8B45 08          MOV EAX,DWORD PTR SS:[EBP+8]
00402AFD   F740 04 06000000 TEST DWORD PTR DS:[EAX+4],6
00402B04   0F85 82000000    JNZ app5win.00402B8C
00402B0A   8945 F8          MOV DWORD PTR SS:[EBP-8],EAX
00402B0D   8B45 10          MOV EAX,DWORD PTR SS:[EBP+10]
00402B10   8945 FC          MOV DWORD PTR SS:[EBP-4],EAX
00402B13   8D45 F8          LEA EAX,DWORD PTR SS:[EBP-8]
00402B16   8943 FC          MOV DWORD PTR DS:[EBX-4],EAX
00402B19   8B73 0C          MOV ESI,DWORD PTR DS:[EBX+C]
00402B1C   8B7B 08          MOV EDI,DWORD PTR DS:[EBX+8]
00402B1F   83FE FF          /CMP ESI,-1
00402B22   74 61            |JE SHORT app5win.00402B85
00402B24   8D0C76           |LEA ECX,DWORD PTR DS:[ESI+ESI*2]
00402B27   837C8F 04 00     |CMP DWORD PTR DS:[EDI+ECX*4+4],0
00402B2C   74 45            |JE SHORT app5win.00402B73
00402B2E   56               |PUSH ESI
00402B2F   55               |PUSH EBP
00402B30   8D6B 10          |LEA EBP,DWORD PTR DS:[EBX+10]
00402B33   FF548F 04        |CALL DWORD PTR DS:[EDI+ECX*4+4]
00402B37   5D               |POP EBP
00402B38   5E               |POP ESI
00402B39   8B5D 0C          |MOV EBX,DWORD PTR SS:[EBP+C]
00402B3C   0BC0             |OR EAX,EAX
00402B3E   74 33            |JE SHORT app5win.00402B73
00402B40   78 3C            |JS SHORT app5win.00402B7E
00402B42   8B7B 08          |MOV EDI,DWORD PTR DS:[EBX+8]
00402B45   53               |PUSH EBX
00402B46   E8 A9FEFFFF      |CALL app5win.004029F4
00402B4B   83C4 04          |ADD ESP,4
00402B4E   8D6B 10          |LEA EBP,DWORD PTR DS:[EBX+10]
00402B51   56               |PUSH ESI
00402B52   53               |PUSH EBX
00402B53   E8 DEFEFFFF      |CALL app5win.00402A36
00402B58   83C4 08          |ADD ESP,8
00402B5B   8D0C76           |LEA ECX,DWORD PTR DS:[ESI+ESI*2]
00402B5E   6A 01            |PUSH 1
00402B60   8B448F 08        |MOV EAX,DWORD PTR DS:[EDI+ECX*4+8]
00402B64   E8 61FFFFFF      |CALL app5win.00402ACA
00402B69   8B048F           |MOV EAX,DWORD PTR DS:[EDI+ECX*4]
00402B6C   8943 0C          |MOV DWORD PTR DS:[EBX+C],EAX
00402B6F   FF548F 08        |CALL DWORD PTR DS:[EDI+ECX*4+8]
00402B73   8B7B 08          |MOV EDI,DWORD PTR DS:[EBX+8]
00402B76   8D0C76           |LEA ECX,DWORD PTR DS:[ESI+ESI*2]
00402B79   8B348F           |MOV ESI,DWORD PTR DS:[EDI+ECX*4]
00402B7C  ^EB A1            \JMP SHORT app5win.00402B1F
00402B7E   B8 00000000      MOV EAX,0
00402B83   EB 1C            JMP SHORT app5win.00402BA1
00402B85   B8 01000000      MOV EAX,1
00402B8A   EB 15            JMP SHORT app5win.00402BA1
00402B8C   55               PUSH EBP
00402B8D   8D6B 10          LEA EBP,DWORD PTR DS:[EBX+10]
00402B90   6A FF            PUSH -1
00402B92   53               PUSH EBX
00402B93   E8 9EFEFFFF      CALL app5win.00402A36
00402B98   83C4 08          ADD ESP,8
00402B9B   5D               POP EBP
00402B9C   B8 01000000      MOV EAX,1
00402BA1   5D               POP EBP
00402BA2   5F               POP EDI
00402BA3   5E               POP ESI
00402BA4   5B               POP EBX
00402BA5   8BE5             MOV ESP,EBP
00402BA7   5D               POP EBP
00402BA8   C3               RETN
00402BA9   55               PUSH EBP
00402BAA   8B4C24 08        MOV ECX,DWORD PTR SS:[ESP+8]
00402BAE   8B29             MOV EBP,DWORD PTR DS:[ECX]
00402BB0   8B41 1C          MOV EAX,DWORD PTR DS:[ECX+1C]
00402BB3   50               PUSH EAX
00402BB4   8B41 18          MOV EAX,DWORD PTR DS:[ECX+18]
00402BB7   50               PUSH EAX
00402BB8   E8 79FEFFFF      CALL app5win.00402A36
00402BBD   83C4 08          ADD ESP,8
00402BC0   5D               POP EBP
00402BC1   C2 0400          RETN 4
00402BC4   A1 187D4000      MOV EAX,DWORD PTR DS:[407D18]
00402BC9   83F8 01          CMP EAX,1
00402BCC   74 0D            JE SHORT app5win.00402BDB
00402BCE   85C0             TEST EAX,EAX
00402BD0   75 2A            JNZ SHORT app5win.00402BFC
00402BD2   833D 84704000 01 CMP DWORD PTR DS:[407084],1
00402BD9   75 21            JNZ SHORT app5win.00402BFC
00402BDB   68 FC000000      PUSH 0FC
00402BE0   E8 18000000      CALL app5win.00402BFD
00402BE5   A1 747E4000      MOV EAX,DWORD PTR DS:[407E74]
00402BEA   59               POP ECX
00402BEB   85C0             TEST EAX,EAX
00402BED   74 02            JE SHORT app5win.00402BF1
00402BEF   FFD0             CALL EAX
00402BF1   68 FF000000      PUSH 0FF
00402BF6   E8 02000000      CALL app5win.00402BFD
00402BFB   59               POP ECX
00402BFC   C3               RETN
00402BFD   55               PUSH EBP
00402BFE   8BEC             MOV EBP,ESP
00402C00   81EC A4010000    SUB ESP,1A4
00402C06   8B55 08          MOV EDX,DWORD PTR SS:[EBP+8]
00402C09   33C9             XOR ECX,ECX
00402C0B   B8 D8734000      MOV EAX,app5win.004073D8
00402C10   3B10             /CMP EDX,DWORD PTR DS:[EAX]
00402C12   74 0B            |JE SHORT app5win.00402C1F
00402C14   83C0 08          |ADD EAX,8
00402C17   41               |INC ECX
00402C18   3D 68744000      |CMP EAX,app5win.00407468
00402C1D  ^7C F1            \JL SHORT app5win.00402C10
00402C1F   56               PUSH ESI
00402C20   8BF1             MOV ESI,ECX
00402C22   C1E6 03          SHL ESI,3
00402C25   3B96 D8734000    CMP EDX,DWORD PTR DS:[ESI+4073D8]
00402C2B   0F85 1C010000    JNZ app5win.00402D4D
00402C31   A1 187D4000      MOV EAX,DWORD PTR DS:[407D18]
00402C36   83F8 01          CMP EAX,1
00402C39   0F84 E8000000    JE app5win.00402D27
00402C3F   85C0             TEST EAX,EAX
00402C41   75 0D            JNZ SHORT app5win.00402C50
00402C43   833D 84704000 01 CMP DWORD PTR DS:[407084],1
00402C4A   0F84 D7000000    JE app5win.00402D27
00402C50   81FA FC000000    CMP EDX,0FC
00402C56   0F84 F1000000    JE app5win.00402D4D
00402C5C   8D85 5CFEFFFF    LEA EAX,DWORD PTR SS:[EBP-1A4]
00402C62   68 04010000      PUSH 104
00402C67   50               PUSH EAX
00402C68   6A 00            PUSH 0
00402C6A   FF15 20604000    CALL DWORD PTR DS:[<&KERNEL32.GetModuleF>; kernel32.GetModuleFileNameA
00402C70   85C0             TEST EAX,EAX
00402C72   75 13            JNZ SHORT app5win.00402C87
00402C74   8D85 5CFEFFFF    LEA EAX,DWORD PTR SS:[EBP-1A4]
00402C7A   68 30644000      PUSH app5win.00406430                    ; ASCII "<program name unknown>"
00402C7F   50               PUSH EAX
00402C80   E8 7B0D0000      CALL app5win.00403A00
00402C85   59               POP ECX
00402C86   59               POP ECX
00402C87   8D85 5CFEFFFF    LEA EAX,DWORD PTR SS:[EBP-1A4]
00402C8D   57               PUSH EDI
00402C8E   50               PUSH EAX
00402C8F   8DBD 5CFEFFFF    LEA EDI,DWORD PTR SS:[EBP-1A4]
00402C95   E8 46F3FFFF      CALL app5win.00401FE0
00402C9A   40               INC EAX
00402C9B   59               POP ECX
00402C9C   83F8 3C          CMP EAX,3C
00402C9F   76 29            JBE SHORT app5win.00402CCA
00402CA1   8D85 5CFEFFFF    LEA EAX,DWORD PTR SS:[EBP-1A4]
00402CA7   50               PUSH EAX
00402CA8   E8 33F3FFFF      CALL app5win.00401FE0
00402CAD   8BF8             MOV EDI,EAX
00402CAF   8D85 5CFEFFFF    LEA EAX,DWORD PTR SS:[EBP-1A4]
00402CB5   83E8 3B          SUB EAX,3B
00402CB8   6A 03            PUSH 3
00402CBA   03F8             ADD EDI,EAX
00402CBC   68 2C644000      PUSH app5win.0040642C                    ; ASCII "..."
00402CC1   57               PUSH EDI
00402CC2   E8 F91A0000      CALL app5win.004047C0
00402CC7   83C4 10          ADD ESP,10
00402CCA   8D85 60FFFFFF    LEA EAX,DWORD PTR SS:[EBP-A0]
00402CD0   68 10644000      PUSH app5win.00406410                    ; ASCII "Runtime Error!

Program: "
00402CD5   50               PUSH EAX
00402CD6   E8 250D0000      CALL app5win.00403A00
00402CDB   8D85 60FFFFFF    LEA EAX,DWORD PTR SS:[EBP-A0]
00402CE1   57               PUSH EDI
00402CE2   50               PUSH EAX
00402CE3   E8 280D0000      CALL app5win.00403A10
00402CE8   8D85 60FFFFFF    LEA EAX,DWORD PTR SS:[EBP-A0]
00402CEE   68 0C644000      PUSH app5win.0040640C                    ; ASCII "

"
00402CF3   50               PUSH EAX
00402CF4   E8 170D0000      CALL app5win.00403A10
00402CF9   FFB6 DC734000    PUSH DWORD PTR DS:[ESI+4073DC]
00402CFF   8D85 60FFFFFF    LEA EAX,DWORD PTR SS:[EBP-A0]
00402D05   50               PUSH EAX
00402D06   E8 050D0000      CALL app5win.00403A10
00402D0B   68 10200100      PUSH 12010
00402D10   8D85 60FFFFFF    LEA EAX,DWORD PTR SS:[EBP-A0]
00402D16   68 E4634000      PUSH app5win.004063E4                    ; ASCII "Microsoft Visual C++ Runtime Library"
00402D1B   50               PUSH EAX
00402D1C   E8 0C1A0000      CALL app5win.0040472D
00402D21   83C4 2C          ADD ESP,2C
00402D24   5F               POP EDI
00402D25   EB 26            JMP SHORT app5win.00402D4D
00402D27   8D45 08          LEA EAX,DWORD PTR SS:[EBP+8]
00402D2A   8DB6 DC734000    LEA ESI,DWORD PTR DS:[ESI+4073DC]
00402D30   6A 00            PUSH 0
00402D32   50               PUSH EAX
00402D33   FF36             PUSH DWORD PTR DS:[ESI]
00402D35   E8 A6F2FFFF      CALL app5win.00401FE0
00402D3A   59               POP ECX
00402D3B   50               PUSH EAX
00402D3C   FF36             PUSH DWORD PTR DS:[ESI]
00402D3E   6A F4            PUSH -0C
00402D40   FF15 3C604000    CALL DWORD PTR DS:[<&KERNEL32.GetStdHand>; kernel32.GetStdHandle
00402D46   50               PUSH EAX
00402D47   FF15 78604000    CALL DWORD PTR DS:[<&KERNEL32.WriteFile>>; kernel32.WriteFile
00402D4D   5E               POP ESI
00402D4E   C9               LEAVE
00402D4F   C3               RETN
00402D50   53               PUSH EBX
00402D51   56               PUSH ESI
00402D52   8B7424 0C        MOV ESI,DWORD PTR SS:[ESP+C]
00402D56   57               PUSH EDI
00402D57   0FAF7424 14      IMUL ESI,DWORD PTR SS:[ESP+14]
00402D5C   83FE E0          CMP ESI,-20
00402D5F   8BDE             MOV EBX,ESI
00402D61   77 0D            JA SHORT app5win.00402D70
00402D63   85F6             TEST ESI,ESI
00402D65   75 03            JNZ SHORT app5win.00402D6A
00402D67   6A 01            PUSH 1
00402D69   5E               POP ESI
00402D6A   83C6 0F          ADD ESI,0F
00402D6D   83E6 F0          AND ESI,FFFFFFF0
00402D70   33FF             /XOR EDI,EDI
00402D72   83FE E0          |CMP ESI,-20
00402D75   77 3A            |JA SHORT app5win.00402DB1
00402D77   3B1D 48784000    |CMP EBX,DWORD PTR DS:[407848]
00402D7D   77 1D            |JA SHORT app5win.00402D9C
00402D7F   6A 09            |PUSH 9
00402D81   E8 38020000      |CALL app5win.00402FBE
00402D86   53               |PUSH EBX
00402D87   E8 EC140000      |CALL app5win.00404278
00402D8C   6A 09            |PUSH 9
00402D8E   8BF8             |MOV EDI,EAX
00402D90   E8 8A020000      |CALL app5win.0040301F
00402D95   83C4 0C          |ADD ESP,0C
00402D98   85FF             |TEST EDI,EDI
00402D9A   75 2B            |JNZ SHORT app5win.00402DC7
00402D9C   56               |PUSH ESI
00402D9D   6A 08            |PUSH 8
00402D9F   FF35 A8824000    |PUSH DWORD PTR DS:[4082A8]
00402DA5   FF15 7C604000    |CALL DWORD PTR DS:[<&KERNEL32.HeapAlloc>; ntdll.RtlAllocateHeap
00402DAB   8BF8             |MOV EDI,EAX
00402DAD   85FF             |TEST EDI,EDI
00402DAF   75 22            |JNZ SHORT app5win.00402DD3
00402DB1   833D EC7E4000 00 |CMP DWORD PTR DS:[407EEC],0
00402DB8   74 19            |JE SHORT app5win.00402DD3
00402DBA   56               |PUSH ESI
00402DBB   E8 FE1A0000      |CALL app5win.004048BE
00402DC0   85C0             |TEST EAX,EAX
00402DC2   59               |POP ECX
00402DC3   74 14            |JE SHORT app5win.00402DD9
00402DC5  ^EB A9            \JMP SHORT app5win.00402D70
00402DC7   53               PUSH EBX
00402DC8   6A 00            PUSH 0
00402DCA   57               PUSH EDI
00402DCB   E8 80E3FFFF      CALL app5win.00401150
00402DD0   83C4 0C          ADD ESP,0C
00402DD3   8BC7             MOV EAX,EDI
00402DD5   5F               POP EDI
00402DD6   5E               POP ESI
00402DD7   5B               POP EBX
00402DD8   C3               RETN
00402DD9   33C0             XOR EAX,EAX
00402DDB  ^EB F8            JMP SHORT app5win.00402DD5
00402DDD   53               PUSH EBX
00402DDE   57               PUSH EDI
00402DDF   6A 02            PUSH 2
00402DE1   33DB             XOR EBX,EBX
00402DE3   E8 D6010000      CALL app5win.00402FBE
00402DE8   59               POP ECX
00402DE9   6A 03            PUSH 3
00402DEB   5F               POP EDI
00402DEC   393D E0934000    CMP DWORD PTR DS:[4093E0],EDI
00402DF2   7E 5D            JLE SHORT app5win.00402E51
00402DF4   56               PUSH ESI
00402DF5   A1 D8834000      MOV EAX,DWORD PTR DS:[4083D8]
00402DFA   8BF7             MOV ESI,EDI
00402DFC   C1E6 02          SHL ESI,2
00402DFF   8B0406           MOV EAX,DWORD PTR DS:[ESI+EAX]
00402E02   85C0             TEST EAX,EAX
00402E04   74 41            JE SHORT app5win.00402E47
00402E06   F640 0C 83       TEST BYTE PTR DS:[EAX+C],83
00402E0A   74 0D            JE SHORT app5win.00402E19
00402E0C   50               PUSH EAX
00402E0D   E8 C71A0000      CALL app5win.004048D9
00402E12   83F8 FF          CMP EAX,-1
00402E15   59               POP ECX
00402E16   74 01            JE SHORT app5win.00402E19
00402E18   43               INC EBX
00402E19   83FF 14          CMP EDI,14
00402E1C   7C 29            JL SHORT app5win.00402E47
00402E1E   A1 D8834000      MOV EAX,DWORD PTR DS:[4083D8]
00402E23   8B0406           MOV EAX,DWORD PTR DS:[ESI+EAX]
00402E26   83C0 20          ADD EAX,20
00402E29   50               PUSH EAX
00402E2A   FF15 48604000    CALL DWORD PTR DS:[<&KERNEL32.DeleteCrit>; ntdll.RtlDeleteCriticalSection
00402E30   A1 D8834000      MOV EAX,DWORD PTR DS:[4083D8]
00402E35   FF3406           PUSH DWORD PTR DS:[ESI+EAX]
00402E38   E8 780B0000      CALL app5win.004039B5
00402E3D   A1 D8834000      MOV EAX,DWORD PTR DS:[4083D8]
00402E42   59               POP ECX
00402E43   832406 00        AND DWORD PTR DS:[ESI+EAX],0
00402E47   47               INC EDI
00402E48   3B3D E0934000    CMP EDI,DWORD PTR DS:[4093E0]
00402E4E  ^7C A5            JL SHORT app5win.00402DF5
00402E50   5E               POP ESI
00402E51   6A 02            PUSH 2
00402E53   E8 C7010000      CALL app5win.0040301F
00402E58   59               POP ECX
00402E59   8BC3             MOV EAX,EBX
00402E5B   5F               POP EDI
00402E5C   5B               POP EBX
00402E5D   C3               RETN
00402E5E   56               PUSH ESI
00402E5F   8B7424 08        MOV ESI,DWORD PTR SS:[ESP+8]
00402E63   56               PUSH ESI
00402E64   E8 23000000      CALL app5win.00402E8C
00402E69   85C0             TEST EAX,EAX
00402E6B   59               POP ECX
00402E6C   74 05            JE SHORT app5win.00402E73
00402E6E   83C8 FF          OR EAX,FFFFFFFF
00402E71   5E               POP ESI
00402E72   C3               RETN
00402E73   F646 0D 40       TEST BYTE PTR DS:[ESI+D],40
00402E77   74 0F            JE SHORT app5win.00402E88
00402E79   FF76 10          PUSH DWORD PTR DS:[ESI+10]
00402E7C   E8 D51A0000      CALL app5win.00404956
00402E81   F7D8             NEG EAX
00402E83   59               POP ECX
00402E84   5E               POP ESI
00402E85   1BC0             SBB EAX,EAX
00402E87   C3               RETN
00402E88   33C0             XOR EAX,EAX
00402E8A   5E               POP ESI
00402E8B   C3               RETN
00402E8C   53               PUSH EBX
00402E8D   56               PUSH ESI
00402E8E   8B7424 0C        MOV ESI,DWORD PTR SS:[ESP+C]
00402E92   33DB             XOR EBX,EBX
00402E94   57               PUSH EDI
00402E95   8B46 0C          MOV EAX,DWORD PTR DS:[ESI+C]
00402E98   8BC8             MOV ECX,EAX
00402E9A   83E1 03          AND ECX,3
00402E9D   80F9 02          CMP CL,2
00402EA0   75 37            JNZ SHORT app5win.00402ED9
00402EA2   66:A9 0801       TEST AX,108
00402EA6   74 31            JE SHORT app5win.00402ED9
00402EA8   8B46 08          MOV EAX,DWORD PTR DS:[ESI+8]
00402EAB   8B3E             MOV EDI,DWORD PTR DS:[ESI]
00402EAD   2BF8             SUB EDI,EAX
00402EAF   85FF             TEST EDI,EDI
00402EB1   7E 26            JLE SHORT app5win.00402ED9
00402EB3   57               PUSH EDI
00402EB4   50               PUSH EAX
00402EB5   FF76 10          PUSH DWORD PTR DS:[ESI+10]
00402EB8   E8 8C050000      CALL app5win.00403449
00402EBD   83C4 0C          ADD ESP,0C
00402EC0   3BC7             CMP EAX,EDI
00402EC2   75 0E            JNZ SHORT app5win.00402ED2
00402EC4   8B46 0C          MOV EAX,DWORD PTR DS:[ESI+C]
00402EC7   A8 80            TEST AL,80
00402EC9   74 0E            JE SHORT app5win.00402ED9
00402ECB   24 FD            AND AL,0FD
00402ECD   8946 0C          MOV DWORD PTR DS:[ESI+C],EAX
00402ED0   EB 07            JMP SHORT app5win.00402ED9
00402ED2   834E 0C 20       OR DWORD PTR DS:[ESI+C],20
00402ED6   83CB FF          OR EBX,FFFFFFFF
00402ED9   8B46 08          MOV EAX,DWORD PTR DS:[ESI+8]
00402EDC   8366 04 00       AND DWORD PTR DS:[ESI+4],0
00402EE0   8906             MOV DWORD PTR DS:[ESI],EAX
00402EE2   5F               POP EDI
00402EE3   8BC3             MOV EAX,EBX
00402EE5   5E               POP ESI
00402EE6   5B               POP EBX
00402EE7   C3               RETN
00402EE8   6A 01            PUSH 1
00402EEA   E8 02000000      CALL app5win.00402EF1
00402EEF   59               POP ECX
00402EF0   C3               RETN
00402EF1   53               PUSH EBX
00402EF2   56               PUSH ESI
00402EF3   57               PUSH EDI
00402EF4   6A 02            PUSH 2
00402EF6   33DB             XOR EBX,EBX
00402EF8   33FF             XOR EDI,EDI
00402EFA   E8 BF000000      CALL app5win.00402FBE
00402EFF   33F6             XOR ESI,ESI
00402F01   59               POP ECX
00402F02   3935 E0934000    CMP DWORD PTR DS:[4093E0],ESI
00402F08   7E 74            JLE SHORT app5win.00402F7E
00402F0A   A1 D8834000      /MOV EAX,DWORD PTR DS:[4083D8]
00402F0F   8B04B0           |MOV EAX,DWORD PTR DS:[EAX+ESI*4]
00402F12   85C0             |TEST EAX,EAX
00402F14   74 5F            |JE SHORT app5win.00402F75
00402F16   F640 0C 83       |TEST BYTE PTR DS:[EAX+C],83
00402F1A   74 59            |JE SHORT app5win.00402F75
00402F1C   50               |PUSH EAX
00402F1D   56               |PUSH ESI
00402F1E   E8 21E5FFFF      |CALL app5win.00401444
00402F23   A1 D8834000      |MOV EAX,DWORD PTR DS:[4083D8]
00402F28   59               |POP ECX
00402F29   59               |POP ECX
00402F2A   8B04B0           |MOV EAX,DWORD PTR DS:[EAX+ESI*4]
00402F2D   8B48 0C          |MOV ECX,DWORD PTR DS:[EAX+C]
00402F30   F6C1 83          |TEST CL,83
00402F33   74 30            |JE SHORT app5win.00402F65
00402F35   837C24 10 01     |CMP DWORD PTR SS:[ESP+10],1
00402F3A   75 0F            |JNZ SHORT app5win.00402F4B
00402F3C   50               |PUSH EAX
00402F3D   E8 1CFFFFFF      |CALL app5win.00402E5E
00402F42   83F8 FF          |CMP EAX,-1
00402F45   59               |POP ECX
00402F46   74 1D            |JE SHORT app5win.00402F65
00402F48   43               |INC EBX
00402F49   EB 1A            |JMP SHORT app5win.00402F65
00402F4B   837C24 10 00     |CMP DWORD PTR SS:[ESP+10],0
00402F50   75 13            |JNZ SHORT app5win.00402F65
00402F52   F6C1 02          |TEST CL,2
00402F55   74 0E            |JE SHORT app5win.00402F65
00402F57   50               |PUSH EAX
00402F58   E8 01FFFFFF      |CALL app5win.00402E5E
00402F5D   83F8 FF          |CMP EAX,-1
00402F60   59               |POP ECX
00402F61   75 02            |JNZ SHORT app5win.00402F65
00402F63   0BF8             |OR EDI,EAX
00402F65   A1 D8834000      |MOV EAX,DWORD PTR DS:[4083D8]
00402F6A   FF34B0           |PUSH DWORD PTR DS:[EAX+ESI*4]
00402F6D   56               |PUSH ESI
00402F6E   E8 23E5FFFF      |CALL app5win.00401496
00402F73   59               |POP ECX
00402F74   59               |POP ECX
00402F75   46               |INC ESI
00402F76   3B35 E0934000    |CMP ESI,DWORD PTR DS:[4093E0]
00402F7C  ^7C 8C            \JL SHORT app5win.00402F0A
00402F7E   6A 02            PUSH 2
00402F80   E8 9A000000      CALL app5win.0040301F
00402F85   837C24 14 01     CMP DWORD PTR SS:[ESP+14],1
00402F8A   59               POP ECX
00402F8B   8BC3             MOV EAX,EBX
00402F8D   74 02            JE SHORT app5win.00402F91
00402F8F   8BC7             MOV EAX,EDI
00402F91   5F               POP EDI
00402F92   5E               POP ESI
00402F93   5B               POP EBX
00402F94   C3               RETN
00402F95   56               PUSH ESI
00402F96   8B35 80604000    MOV ESI,DWORD PTR DS:[<&KERNEL32.Initial>; ntdll.RtlInitializeCriticalSection
00402F9C   FF35 AC744000    PUSH DWORD PTR DS:[4074AC]               ; app5win.00407E90
00402FA2   FFD6             CALL ESI
00402FA4   FF35 9C744000    PUSH DWORD PTR DS:[40749C]               ; app5win.00407EC0
00402FAA   FFD6             CALL ESI
00402FAC   FF35 8C744000    PUSH DWORD PTR DS:[40748C]               ; app5win.00407EA8
00402FB2   FFD6             CALL ESI
00402FB4   FF35 6C744000    PUSH DWORD PTR DS:[40746C]               ; app5win.00407E78
00402FBA   FFD6             CALL ESI
00402FBC   5E               POP ESI
00402FBD   C3               RETN
00402FBE   55               PUSH EBP
00402FBF   8BEC             MOV EBP,ESP
00402FC1   8B45 08          MOV EAX,DWORD PTR SS:[EBP+8]
00402FC4   56               PUSH ESI
00402FC5   833C85 68744000 >CMP DWORD PTR DS:[EAX*4+407468],0
00402FCD   8D3485 68744000  LEA ESI,DWORD PTR DS:[EAX*4+407468]
00402FD4   75 3E            JNZ SHORT app5win.00403014
00402FD6   57               PUSH EDI
00402FD7   6A 18            PUSH 18
00402FD9   E8 56000000      CALL app5win.00403034
00402FDE   8BF8             MOV EDI,EAX
00402FE0   59               POP ECX
00402FE1   85FF             TEST EDI,EDI
00402FE3   75 08            JNZ SHORT app5win.00402FED
00402FE5   6A 11            PUSH 11
00402FE7   E8 24E3FFFF      CALL app5win.00401310
00402FEC   59               POP ECX
00402FED   6A 11            PUSH 11
00402FEF   E8 CAFFFFFF      CALL app5win.00402FBE
00402FF4   833E 00          CMP DWORD PTR DS:[ESI],0
00402FF7   59               POP ECX
00402FF8   57               PUSH EDI
00402FF9   75 0A            JNZ SHORT app5win.00403005
00402FFB   FF15 80604000    CALL DWORD PTR DS:[<&KERNEL32.Initialize>; ntdll.RtlInitializeCriticalSection
00403001   893E             MOV DWORD PTR DS:[ESI],EDI
00403003   EB 06            JMP SHORT app5win.0040300B
00403005   E8 AB090000      CALL app5win.004039B5
0040300A   59               POP ECX
0040300B   6A 11            PUSH 11
0040300D   E8 0D000000      CALL app5win.0040301F
00403012   59               POP ECX
00403013   5F               POP EDI
00403014   FF36             PUSH DWORD PTR DS:[ESI]
00403016   FF15 0C604000    CALL DWORD PTR DS:[<&KERNEL32.EnterCriti>; ntdll.RtlEnterCriticalSection
0040301C   5E               POP ESI
0040301D   5D               POP EBP
0040301E   C3               RETN
0040301F   55               PUSH EBP
00403020   8BEC             MOV EBP,ESP
00403022   8B45 08          MOV EAX,DWORD PTR SS:[EBP+8]
00403025   FF3485 68744000  PUSH DWORD PTR DS:[EAX*4+407468]
0040302C   FF15 10604000    CALL DWORD PTR DS:[<&KERNEL32.LeaveCriti>; ntdll.RtlLeaveCriticalSection
00403032   5D               POP EBP
00403033   C3               RETN
00403034   FF35 EC7E4000    PUSH DWORD PTR DS:[407EEC]
0040303A   FF7424 08        PUSH DWORD PTR SS:[ESP+8]
0040303E   E8 03000000      CALL app5win.00403046
00403043   59               POP ECX
00403044   59               POP ECX
00403045   C3               RETN
00403046   837C24 04 E0     CMP DWORD PTR SS:[ESP+4],-20
0040304B   77 22            JA SHORT app5win.0040306F
0040304D   FF7424 04        /PUSH DWORD PTR SS:[ESP+4]
00403051   E8 1C000000      |CALL app5win.00403072
00403056   85C0             |TEST EAX,EAX
00403058   59               |POP ECX
00403059   75 16            |JNZ SHORT app5win.00403071
0040305B   394424 08        |CMP DWORD PTR SS:[ESP+8],EAX
0040305F   74 10            |JE SHORT app5win.00403071
00403061   FF7424 04        |PUSH DWORD PTR SS:[ESP+4]
00403065   E8 54180000      |CALL app5win.004048BE
0040306A   85C0             |TEST EAX,EAX
0040306C   59               |POP ECX
0040306D  ^75 DE            \JNZ SHORT app5win.0040304D
0040306F   33C0             XOR EAX,EAX
00403071   C3               RETN
00403072   56               PUSH ESI
00403073   8B7424 08        MOV ESI,DWORD PTR SS:[ESP+8]
00403077   3B35 48784000    CMP ESI,DWORD PTR DS:[407848]
0040307D   57               PUSH EDI
0040307E   77 21            JA SHORT app5win.004030A1
00403080   6A 09            PUSH 9
00403082   E8 37FFFFFF      CALL app5win.00402FBE
00403087   56               PUSH ESI
00403088   E8 EB110000      CALL app5win.00404278
0040308D   6A 09            PUSH 9
0040308F   8BF8             MOV EDI,EAX
00403091   E8 89FFFFFF      CALL app5win.0040301F
00403096   83C4 0C          ADD ESP,0C
00403099   85FF             TEST EDI,EDI
0040309B   74 04            JE SHORT app5win.004030A1
0040309D   8BC7             MOV EAX,EDI
0040309F   EB 1C            JMP SHORT app5win.004030BD
004030A1   85F6             TEST ESI,ESI
004030A3   75 03            JNZ SHORT app5win.004030A8
004030A5   6A 01            PUSH 1
004030A7   5E               POP ESI
004030A8   83C6 0F          ADD ESI,0F
004030AB   83E6 F0          AND ESI,FFFFFFF0
004030AE   56               PUSH ESI
004030AF   6A 00            PUSH 0
004030B1   FF35 A8824000    PUSH DWORD PTR DS:[4082A8]
004030B7   FF15 7C604000    CALL DWORD PTR DS:[<&KERNEL32.HeapAlloc>>; ntdll.RtlAllocateHeap
004030BD   5F               POP EDI
004030BE   5E               POP ESI
004030BF   C3               RETN
004030C0   8B4424 04        MOV EAX,DWORD PTR SS:[ESP+4]
004030C4   3B05 C0834000    CMP EAX,DWORD PTR DS:[4083C0]
004030CA   72 03            JB SHORT app5win.004030CF
004030CC   33C0             XOR EAX,EAX
004030CE   C3               RETN
004030CF   8BC8             MOV ECX,EAX
004030D1   83E0 1F          AND EAX,1F
004030D4   C1F9 05          SAR ECX,5
004030D7   8D04C0           LEA EAX,DWORD PTR DS:[EAX+EAX*8]
004030DA   8B0C8D C0824000  MOV ECX,DWORD PTR DS:[ECX*4+4082C0]
004030E1   8A4481 04        MOV AL,BYTE PTR DS:[ECX+EAX*4+4]
004030E5   83E0 40          AND EAX,40
004030E8   C3               RETN
004030E9   55               PUSH EBP
004030EA   8BEC             MOV EBP,ESP
004030EC   53               PUSH EBX
004030ED   56               PUSH ESI
004030EE   BE 64804000      MOV ESI,app5win.00408064
004030F3   57               PUSH EDI
004030F4   56               PUSH ESI
004030F5   FF15 88604000    CALL DWORD PTR DS:[<&KERNEL32.Interlocke>; kernel32.InterlockedIncrement
004030FB   8B3D 84604000    MOV EDI,DWORD PTR DS:[<&KERNEL32.Interlo>; kernel32.InterlockedDecrement
00403101   33DB             XOR EBX,EBX
00403103   391D 60804000    CMP DWORD PTR DS:[408060],EBX
00403109   74 0E            JE SHORT app5win.00403119
0040310B   56               PUSH ESI
0040310C   FFD7             CALL EDI
0040310E   6A 13            PUSH 13
00403110   E8 A9FEFFFF      CALL app5win.00402FBE
00403115   59               POP ECX
00403116   6A 01            PUSH 1
00403118   5B               POP EBX
00403119   FF75 0C          PUSH DWORD PTR SS:[EBP+C]
0040311C   FF75 08          PUSH DWORD PTR SS:[EBP+8]
0040311F   E8 1E000000      CALL app5win.00403142
00403124   59               POP ECX
00403125   8945 0C          MOV DWORD PTR SS:[EBP+C],EAX
00403128   85DB             TEST EBX,EBX
0040312A   59               POP ECX
0040312B   74 0A            JE SHORT app5win.00403137
0040312D   6A 13            PUSH 13
0040312F   E8 EBFEFFFF      CALL app5win.0040301F
00403134   59               POP ECX
00403135   EB 03            JMP SHORT app5win.0040313A
00403137   56               PUSH ESI
00403138   FFD7             CALL EDI
0040313A   8B45 0C          MOV EAX,DWORD PTR SS:[EBP+C]
0040313D   5F               POP EDI
0040313E   5E               POP ESI
0040313F   5B               POP EBX
00403140   5D               POP EBP
00403141   C3               RETN
00403142   55               PUSH EBP
00403143   8BEC             MOV EBP,ESP
00403145   8B45 08          MOV EAX,DWORD PTR SS:[EBP+8]
00403148   85C0             TEST EAX,EAX
0040314A   75 02            JNZ SHORT app5win.0040314E
0040314C   5D               POP EBP
0040314D   C3               RETN
0040314E   833D 047F4000 00 CMP DWORD PTR DS:[407F04],0
00403155   75 12            JNZ SHORT app5win.00403169
00403157   66:8B4D 0C       MOV CX,WORD PTR SS:[EBP+C]
0040315B   66:81F9 FF00     CMP CX,0FF
00403160   77 39            JA SHORT app5win.0040319B
00403162   6A 01            PUSH 1
00403164   8808             MOV BYTE PTR DS:[EAX],CL
00403166   58               POP EAX
00403167   5D               POP EBP
00403168   C3               RETN
00403169   8D4D 08          LEA ECX,DWORD PTR SS:[EBP+8]
0040316C   8365 08 00       AND DWORD PTR SS:[EBP+8],0
00403170   51               PUSH ECX
00403171   6A 00            PUSH 0
00403173   FF35 C87A4000    PUSH DWORD PTR DS:[407AC8]
00403179   50               PUSH EAX
0040317A   8D45 0C          LEA EAX,DWORD PTR SS:[EBP+C]
0040317D   6A 01            PUSH 1
0040317F   50               PUSH EAX
00403180   68 20020000      PUSH 220
00403185   FF35 147F4000    PUSH DWORD PTR DS:[407F14]
0040318B   FF15 2C604000    CALL DWORD PTR DS:[<&KERNEL32.WideCharTo>; kernel32.WideCharToMultiByte
00403191   85C0             TEST EAX,EAX
00403193   74 06            JE SHORT app5win.0040319B
00403195   837D 08 00       CMP DWORD PTR SS:[EBP+8],0
00403199   74 0E            JE SHORT app5win.004031A9
0040319B   E8 C5180000      CALL app5win.00404A65
004031A0   C700 2A000000    MOV DWORD PTR DS:[EAX],2A
004031A6   83C8 FF          OR EAX,FFFFFFFF
004031A9   5D               POP EBP
004031AA   C3               RETN
004031AB   CC               INT3
004031AC   CC               INT3
004031AD   CC               INT3
004031AE   CC               INT3
004031AF   CC               INT3
004031B0   53               PUSH EBX
004031B1   56               PUSH ESI
004031B2   8B4424 18        MOV EAX,DWORD PTR SS:[ESP+18]
004031B6   0BC0             OR EAX,EAX
004031B8   75 18            JNZ SHORT app5win.004031D2
004031BA   8B4C24 14        MOV ECX,DWORD PTR SS:[ESP+14]
004031BE   8B4424 10        MOV EAX,DWORD PTR SS:[ESP+10]
004031C2   33D2             XOR EDX,EDX
004031C4   F7F1             DIV ECX
004031C6   8BD8             MOV EBX,EAX
004031C8   8B4424 0C        MOV EAX,DWORD PTR SS:[ESP+C]
004031CC   F7F1             DIV ECX
004031CE   8BD3             MOV EDX,EBX
004031D0   EB 41            JMP SHORT app5win.00403213
004031D2   8BC8             MOV ECX,EAX
004031D4   8B5C24 14        MOV EBX,DWORD PTR SS:[ESP+14]
004031D8   8B5424 10        MOV EDX,DWORD PTR SS:[ESP+10]
004031DC   8B4424 0C        MOV EAX,DWORD PTR SS:[ESP+C]
004031E0   D1E9             /SHR ECX,1
004031E2   D1DB             |RCR EBX,1
004031E4   D1EA             |SHR EDX,1
004031E6   D1D8             |RCR EAX,1
004031E8   0BC9             |OR ECX,ECX
004031EA  ^75 F4            \JNZ SHORT app5win.004031E0
004031EC   F7F3             DIV EBX
004031EE   8BF0             MOV ESI,EAX
004031F0   F76424 18        MUL DWORD PTR SS:[ESP+18]
004031F4   8BC8             MOV ECX,EAX
004031F6   8B4424 14        MOV EAX,DWORD PTR SS:[ESP+14]
004031FA   F7E6             MUL ESI
004031FC   03D1             ADD EDX,ECX
004031FE   72 0E            JB SHORT app5win.0040320E
00403200   3B5424 10        CMP EDX,DWORD PTR SS:[ESP+10]
00403204   77 08            JA SHORT app5win.0040320E
00403206   72 07            JB SHORT app5win.0040320F
00403208   3B4424 0C        CMP EAX,DWORD PTR SS:[ESP+C]
0040320C   76 01            JBE SHORT app5win.0040320F
0040320E   4E               DEC ESI
0040320F   33D2             XOR EDX,EDX
00403211   8BC6             MOV EAX,ESI
00403213   5E               POP ESI
00403214   5B               POP EBX
00403215   C2 1000          RETN 10
00403218   CC               INT3
00403219   CC               INT3
0040321A   CC               INT3
0040321B   CC               INT3
0040321C   CC               INT3
0040321D   CC               INT3
0040321E   CC               INT3
0040321F   CC               INT3
00403220   53               PUSH EBX
00403221   8B4424 14        MOV EAX,DWORD PTR SS:[ESP+14]
00403225   0BC0             OR EAX,EAX
00403227   75 18            JNZ SHORT app5win.00403241
00403229   8B4C24 10        MOV ECX,DWORD PTR SS:[ESP+10]
0040322D   8B4424 0C        MOV EAX,DWORD PTR SS:[ESP+C]
00403231   33D2             XOR EDX,EDX
00403233   F7F1             DIV ECX
00403235   8B4424 08        MOV EAX,DWORD PTR SS:[ESP+8]
00403239   F7F1             DIV ECX
0040323B   8BC2             MOV EAX,EDX
0040323D   33D2             XOR EDX,EDX
0040323F   EB 50            JMP SHORT app5win.00403291
00403241   8BC8             MOV ECX,EAX
00403243   8B5C24 10        MOV EBX,DWORD PTR SS:[ESP+10]
00403247   8B5424 0C        MOV EDX,DWORD PTR SS:[ESP+C]
0040324B   8B4424 08        MOV EAX,DWORD PTR SS:[ESP+8]
0040324F   D1E9             /SHR ECX,1
00403251   D1DB             |RCR EBX,1
00403253   D1EA             |SHR EDX,1
00403255   D1D8             |RCR EAX,1
00403257   0BC9             |OR ECX,ECX
00403259  ^75 F4            \JNZ SHORT app5win.0040324F
0040325B   F7F3             DIV EBX
0040325D   8BC8             MOV ECX,EAX
0040325F   F76424 14        MUL DWORD PTR SS:[ESP+14]
00403263   91               XCHG EAX,ECX
00403264   F76424 10        MUL DWORD PTR SS:[ESP+10]
00403268   03D1             ADD EDX,ECX
0040326A   72 0E            JB SHORT app5win.0040327A
0040326C   3B5424 0C        CMP EDX,DWORD PTR SS:[ESP+C]
00403270   77 08            JA SHORT app5win.0040327A
00403272   72 0E            JB SHORT app5win.00403282
00403274   3B4424 08        CMP EAX,DWORD PTR SS:[ESP+8]
00403278   76 08            JBE SHORT app5win.00403282
0040327A   2B4424 10        SUB EAX,DWORD PTR SS:[ESP+10]
0040327E   1B5424 14        SBB EDX,DWORD PTR SS:[ESP+14]
00403282   2B4424 08        SUB EAX,DWORD PTR SS:[ESP+8]
00403286   1B5424 0C        SBB EDX,DWORD PTR SS:[ESP+C]
0040328A   F7DA             NEG EDX
0040328C   F7D8             NEG EAX
0040328E   83DA 00          SBB EDX,0
00403291   5B               POP EBX
00403292   C2 1000          RETN 10
00403295   56               PUSH ESI
00403296   8B7424 08        MOV ESI,DWORD PTR SS:[ESP+8]
0040329A   8B46 0C          MOV EAX,DWORD PTR DS:[ESI+C]
0040329D   A8 83            TEST AL,83
0040329F   0F84 C7000000    JE app5win.0040336C
004032A5   A8 40            TEST AL,40
004032A7   0F85 BF000000    JNZ app5win.0040336C
004032AD   A8 02            TEST AL,2
004032AF   74 0A            JE SHORT app5win.004032BB
004032B1   0C 20            OR AL,20
004032B3   8946 0C          MOV DWORD PTR DS:[ESI+C],EAX
004032B6   E9 B1000000      JMP app5win.0040336C
004032BB   0C 01            OR AL,1
004032BD   66:A9 0C01       TEST AX,10C
004032C1   8946 0C          MOV DWORD PTR DS:[ESI+C],EAX
004032C4   75 09            JNZ SHORT app5win.004032CF
004032C6   56               PUSH ESI
004032C7   E8 6D030000      CALL app5win.00403639
004032CC   59               POP ECX
004032CD   EB 05            JMP SHORT app5win.004032D4
004032CF   8B46 08          MOV EAX,DWORD PTR DS:[ESI+8]
004032D2   8906             MOV DWORD PTR DS:[ESI],EAX
004032D4   FF76 18          PUSH DWORD PTR DS:[ESI+18]
004032D7   FF76 08          PUSH DWORD PTR DS:[ESI+8]
004032DA   FF76 10          PUSH DWORD PTR DS:[ESI+10]
004032DD   E8 95170000      CALL app5win.00404A77
004032E2   83C4 0C          ADD ESP,0C
004032E5   8946 04          MOV DWORD PTR DS:[ESI+4],EAX
004032E8   85C0             TEST EAX,EAX
004032EA   74 6F            JE SHORT app5win.0040335B
004032EC   83F8 FF          CMP EAX,-1
004032EF   74 6A            JE SHORT app5win.0040335B
004032F1   8B56 0C          MOV EDX,DWORD PTR DS:[ESI+C]
004032F4   F6C2 82          TEST DL,82
004032F7   75 37            JNZ SHORT app5win.00403330
004032F9   8B4E 10          MOV ECX,DWORD PTR DS:[ESI+10]
004032FC   57               PUSH EDI
004032FD   83F9 FF          CMP ECX,-1
00403300   74 17            JE SHORT app5win.00403319
00403302   8BF9             MOV EDI,ECX
00403304   C1FF 05          SAR EDI,5
00403307   83E1 1F          AND ECX,1F
0040330A   8B3CBD C0824000  MOV EDI,DWORD PTR DS:[EDI*4+4082C0]
00403311   8D0CC9           LEA ECX,DWORD PTR DS:[ECX+ECX*8]
00403314   8D3C8F           LEA EDI,DWORD PTR DS:[EDI+ECX*4]
00403317   EB 05            JMP SHORT app5win.0040331E
00403319   BF 98734000      MOV EDI,app5win.00407398
0040331E   8A4F 04          MOV CL,BYTE PTR DS:[EDI+4]
00403321   5F               POP EDI
00403322   80E1 82          AND CL,82
00403325   80F9 82          CMP CL,82
00403328   75 06            JNZ SHORT app5win.00403330
0040332A   80CE 20          OR DH,20
0040332D   8956 0C          MOV DWORD PTR DS:[ESI+C],EDX
00403330   817E 18 00020000 CMP DWORD PTR DS:[ESI+18],200
00403337   75 14            JNZ SHORT app5win.0040334D
00403339   8B4E 0C          MOV ECX,DWORD PTR DS:[ESI+C]
0040333C   F6C1 08          TEST CL,8
0040333F   74 0C            JE SHORT app5win.0040334D
00403341   F6C5 04          TEST CH,4
00403344   75 07            JNZ SHORT app5win.0040334D
00403346   C746 18 00100000 MOV DWORD PTR DS:[ESI+18],1000
0040334D   8B0E             MOV ECX,DWORD PTR DS:[ESI]
0040334F   48               DEC EAX
00403350   8946 04          MOV DWORD PTR DS:[ESI+4],EAX
00403353   0FB601           MOVZX EAX,BYTE PTR DS:[ECX]
00403356   41               INC ECX
00403357   890E             MOV DWORD PTR DS:[ESI],ECX
00403359   5E               POP ESI
0040335A   C3               RETN
0040335B   F7D8             NEG EAX
0040335D   1BC0             SBB EAX,EAX
0040335F   83E0 10          AND EAX,10
00403362   83C0 10          ADD EAX,10
00403365   0946 0C          OR DWORD PTR DS:[ESI+C],EAX
00403368   8366 04 00       AND DWORD PTR DS:[ESI+4],0
0040336C   83C8 FF          OR EAX,FFFFFFFF
0040336F   5E               POP ESI
00403370   C3               RETN
00403371   56               PUSH ESI
00403372   8B7424 08        MOV ESI,DWORD PTR SS:[ESP+8]
00403376   3B35 C0834000    CMP ESI,DWORD PTR DS:[4083C0]
0040337C   73 40            JNB SHORT app5win.004033BE
0040337E   8BCE             MOV ECX,ESI
00403380   8BC6             MOV EAX,ESI
00403382   C1F9 05          SAR ECX,5
00403385   83E0 1F          AND EAX,1F
00403388   8B0C8D C0824000  MOV ECX,DWORD PTR DS:[ECX*4+4082C0]
0040338F   8D04C0           LEA EAX,DWORD PTR DS:[EAX+EAX*8]
00403392   F64481 04 01     TEST BYTE PTR DS:[ECX+EAX*4+4],1
00403397   74 25            JE SHORT app5win.004033BE
00403399   57               PUSH EDI
0040339A   56               PUSH ESI
0040339B   E8 D6190000      CALL app5win.00404D76
004033A0   FF7424 18        PUSH DWORD PTR SS:[ESP+18]
004033A4   FF7424 18        PUSH DWORD PTR SS:[ESP+18]
004033A8   56               PUSH ESI
004033A9   E8 28000000      CALL app5win.004033D6
004033AE   56               PUSH ESI
004033AF   8BF8             MOV EDI,EAX
004033B1   E8 1F1A0000      CALL app5win.00404DD5
004033B6   83C4 14          ADD ESP,14
004033B9   8BC7             MOV EAX,EDI
004033BB   5F               POP EDI
004033BC   5E               POP ESI
004033BD   C3               RETN
004033BE   E8 A2160000      CALL app5win.00404A65
004033C3   C700 09000000    MOV DWORD PTR DS:[EAX],9
004033C9   E8 A0160000      CALL app5win.00404A6E
004033CE   8320 00          AND DWORD PTR DS:[EAX],0
004033D1   83C8 FF          OR EAX,FFFFFFFF
004033D4   5E               POP ESI
004033D5   C3               RETN
004033D6   56               PUSH ESI
004033D7   8B7424 08        MOV ESI,DWORD PTR SS:[ESP+8]
004033DB   57               PUSH EDI
004033DC   56               PUSH ESI
004033DD   E8 52190000      CALL app5win.00404D34
004033E2   83F8 FF          CMP EAX,-1
004033E5   59               POP ECX
004033E6   75 0D            JNZ SHORT app5win.004033F5
004033E8   E8 78160000      CALL app5win.00404A65
004033ED   C700 09000000    MOV DWORD PTR DS:[EAX],9
004033F3   EB 2D            JMP SHORT app5win.00403422
004033F5   FF7424 14        PUSH DWORD PTR SS:[ESP+14]
004033F9   6A 00            PUSH 0
004033FB   FF7424 18        PUSH DWORD PTR SS:[ESP+18]
004033FF   50               PUSH EAX
00403400   FF15 8C604000    CALL DWORD PTR DS:[<&KERNEL32.SetFilePoi>; kernel32.SetFilePointer
00403406   8BF8             MOV EDI,EAX
00403408   83FF FF          CMP EDI,-1
0040340B   75 08            JNZ SHORT app5win.00403415
0040340D   FF15 60604000    CALL DWORD PTR DS:[<&KERNEL32.GetLastErr>; kernel32.GetLastError
00403413   EB 02            JMP SHORT app5win.00403417
00403415   33C0             XOR EAX,EAX
00403417   85C0             TEST EAX,EAX
00403419   74 0C            JE SHORT app5win.00403427
0040341B   50               PUSH EAX
0040341C   E8 D1150000      CALL app5win.004049F2
00403421   59               POP ECX
00403422   83C8 FF          OR EAX,FFFFFFFF
00403425   EB 1F            JMP SHORT app5win.00403446
00403427   8BCE             MOV ECX,ESI
00403429   83E6 1F          AND ESI,1F
0040342C   C1F9 05          SAR ECX,5
0040342F   8BC6             MOV EAX,ESI
00403431   8B0C8D C0824000  MOV ECX,DWORD PTR DS:[ECX*4+4082C0]
00403438   8D04C0           LEA EAX,DWORD PTR DS:[EAX+EAX*8]
0040343B   806481 04 FD     AND BYTE PTR DS:[ECX+EAX*4+4],0FD
00403440   8D4481 04        LEA EAX,DWORD PTR DS:[ECX+EAX*4+4]
00403444   8BC7             MOV EAX,EDI
00403446   5F               POP EDI
00403447   5E               POP ESI
00403448   C3               RETN
00403449   56               PUSH ESI
0040344A   8B7424 08        MOV ESI,DWORD PTR SS:[ESP+8]
0040344E   3B35 C0834000    CMP ESI,DWORD PTR DS:[4083C0]
00403454   73 40            JNB SHORT app5win.00403496
00403456   8BCE             MOV ECX,ESI
00403458   8BC6             MOV EAX,ESI
0040345A   C1F9 05          SAR ECX,5
0040345D   83E0 1F          AND EAX,1F
00403460   8B0C8D C0824000  MOV ECX,DWORD PTR DS:[ECX*4+4082C0]
00403467   8D04C0           LEA EAX,DWORD PTR DS:[EAX+EAX*8]
0040346A   F64481 04 01     TEST BYTE PTR DS:[ECX+EAX*4+4],1
0040346F   74 25            JE SHORT app5win.00403496
00403471   57               PUSH EDI
00403472   56               PUSH ESI
00403473   E8 FE180000      CALL app5win.00404D76
00403478   FF7424 18        PUSH DWORD PTR SS:[ESP+18]
0040347C   FF7424 18        PUSH DWORD PTR SS:[ESP+18]
00403480   56               PUSH ESI
00403481   E8 28000000      CALL app5win.004034AE
00403486   56               PUSH ESI
00403487   8BF8             MOV EDI,EAX
00403489   E8 47190000      CALL app5win.00404DD5
0040348E   83C4 14          ADD ESP,14
00403491   8BC7             MOV EAX,EDI
00403493   5F               POP EDI
00403494   5E               POP ESI
00403495   C3               RETN
00403496   E8 CA150000      CALL app5win.00404A65
0040349B   C700 09000000    MOV DWORD PTR DS:[EAX],9
004034A1   E8 C8150000      CALL app5win.00404A6E
004034A6   8320 00          AND DWORD PTR DS:[EAX],0
004034A9   83C8 FF          OR EAX,FFFFFFFF
004034AC   5E               POP ESI
004034AD   C3               RETN
004034AE   55               PUSH EBP
004034AF   8BEC             MOV EBP,ESP
004034B1   81EC 14040000    SUB ESP,414
004034B7   53               PUSH EBX
004034B8   56               PUSH ESI
004034B9   57               PUSH EDI
004034BA   33FF             XOR EDI,EDI
004034BC   397D 10          CMP DWORD PTR SS:[EBP+10],EDI
004034BF   897D F8          MOV DWORD PTR SS:[EBP-8],EDI
004034C2   897D F0          MOV DWORD PTR SS:[EBP-10],EDI
004034C5   75 07            JNZ SHORT app5win.004034CE
004034C7   33C0             XOR EAX,EAX
004034C9   E9 66010000      JMP app5win.00403634
004034CE   8B45 08          MOV EAX,DWORD PTR SS:[EBP+8]
004034D1   C1F8 05          SAR EAX,5
004034D4   8D1C85 C0824000  LEA EBX,DWORD PTR DS:[EAX*4+4082C0]
004034DB   8B45 08          MOV EAX,DWORD PTR SS:[EBP+8]
004034DE   83E0 1F          AND EAX,1F
004034E1   8D34C0           LEA ESI,DWORD PTR DS:[EAX+EAX*8]
004034E4   8B03             MOV EAX,DWORD PTR DS:[EBX]
004034E6   C1E6 02          SHL ESI,2
004034E9   F64430 04 20     TEST BYTE PTR DS:[EAX+ESI+4],20
004034EE   74 0E            JE SHORT app5win.004034FE
004034F0   6A 02            PUSH 2
004034F2   57               PUSH EDI
004034F3   FF75 08          PUSH DWORD PTR SS:[EBP+8]
004034F6   E8 DBFEFFFF      CALL app5win.004033D6
004034FB   83C4 0C          ADD ESP,0C
004034FE   8B03             MOV EAX,DWORD PTR DS:[EBX]
00403500   03C6             ADD EAX,ESI
00403502   F640 04 80       TEST BYTE PTR DS:[EAX+4],80
00403506   0F84 C1000000    JE app5win.004035CD
0040350C   8B45 0C          MOV EAX,DWORD PTR SS:[EBP+C]
0040350F   397D 10          CMP DWORD PTR SS:[EBP+10],EDI
00403512   8945 FC          MOV DWORD PTR SS:[EBP-4],EAX
00403515   897D 08          MOV DWORD PTR SS:[EBP+8],EDI
00403518   0F86 EA000000    JBE app5win.00403608
0040351E   8D85 ECFBFFFF    /LEA EAX,DWORD PTR SS:[EBP-414]
00403524   8B4D FC          |/MOV ECX,DWORD PTR SS:[EBP-4]
00403527   2B4D 0C          ||SUB ECX,DWORD PTR SS:[EBP+C]
0040352A   3B4D 10          ||CMP ECX,DWORD PTR SS:[EBP+10]
0040352D   73 29            ||JNB SHORT app5win.00403558
0040352F   8B4D FC          ||MOV ECX,DWORD PTR SS:[EBP-4]
00403532   FF45 FC          ||INC DWORD PTR SS:[EBP-4]
00403535   8A09             ||MOV CL,BYTE PTR DS:[ECX]
00403537   80F9 0A          ||CMP CL,0A
0040353A   75 07            ||JNZ SHORT app5win.00403543
0040353C   FF45 F0          ||INC DWORD PTR SS:[EBP-10]
0040353F   C600 0D          ||MOV BYTE PTR DS:[EAX],0D
00403542   40               ||INC EAX
00403543   8808             ||MOV BYTE PTR DS:[EAX],CL
00403545   40               ||INC EAX
00403546   8BC8             ||MOV ECX,EAX
00403548   8D95 ECFBFFFF    ||LEA EDX,DWORD PTR SS:[EBP-414]
0040354E   2BCA             ||SUB ECX,EDX
00403550   81F9 00040000    ||CMP ECX,400
00403556  ^7C CC            |\JL SHORT app5win.00403524
00403558   8BF8             |MOV EDI,EAX
0040355A   8D85 ECFBFFFF    |LEA EAX,DWORD PTR SS:[EBP-414]
00403560   2BF8             |SUB EDI,EAX
00403562   8D45 F4          |LEA EAX,DWORD PTR SS:[EBP-C]
00403565   6A 00            |PUSH 0
00403567   50               |PUSH EAX
00403568   8D85 ECFBFFFF    |LEA EAX,DWORD PTR SS:[EBP-414]
0040356E   57               |PUSH EDI
0040356F   50               |PUSH EAX
00403570   8B03             |MOV EAX,DWORD PTR DS:[EBX]
00403572   FF3430           |PUSH DWORD PTR DS:[EAX+ESI]
00403575   FF15 78604000    |CALL DWORD PTR DS:[<&KERNEL32.WriteFile>; kernel32.WriteFile
0040357B   85C0             |TEST EAX,EAX
0040357D   74 43            |JE SHORT app5win.004035C2
0040357F   8B45 F4          |MOV EAX,DWORD PTR SS:[EBP-C]
00403582   0145 F8          |ADD DWORD PTR SS:[EBP-8],EAX
00403585   3BC7             |CMP EAX,EDI
00403587   7C 0B            |JL SHORT app5win.00403594
00403589   8B45 FC          |MOV EAX,DWORD PTR SS:[EBP-4]
0040358C   2B45 0C          |SUB EAX,DWORD PTR SS:[EBP+C]
0040358F   3B45 10          |CMP EAX,DWORD PTR SS:[EBP+10]
00403592  ^72 8A            \JB SHORT app5win.0040351E
00403594   33FF             XOR EDI,EDI
00403596   8B45 F8          MOV EAX,DWORD PTR SS:[EBP-8]
00403599   3BC7             CMP EAX,EDI
0040359B   0F85 90000000    JNZ app5win.00403631
004035A1   397D 08          CMP DWORD PTR SS:[EBP+8],EDI
004035A4   74 62            JE SHORT app5win.00403608
004035A6   6A 05            PUSH 5
004035A8   5E               POP ESI
004035A9   3975 08          CMP DWORD PTR SS:[EBP+8],ESI
004035AC   75 4C            JNZ SHORT app5win.004035FA
004035AE   E8 B2140000      CALL app5win.00404A65
004035B3   C700 09000000    MOV DWORD PTR DS:[EAX],9
004035B9   E8 B0140000      CALL app5win.00404A6E
004035BE   8930             MOV DWORD PTR DS:[EAX],ESI
004035C0   EB 41            JMP SHORT app5win.00403603
004035C2   FF15 60604000    CALL DWORD PTR DS:[<&KERNEL32.GetLastErr>; kernel32.GetLastError
004035C8   8945 08          MOV DWORD PTR SS:[EBP+8],EAX
004035CB  ^EB C7            JMP SHORT app5win.00403594
004035CD   8D4D F4          LEA ECX,DWORD PTR SS:[EBP-C]
004035D0   57               PUSH EDI
004035D1   51               PUSH ECX
004035D2   FF75 10          PUSH DWORD PTR SS:[EBP+10]
004035D5   FF75 0C          PUSH DWORD PTR SS:[EBP+C]
004035D8   FF30             PUSH DWORD PTR DS:[EAX]
004035DA   FF15 78604000    CALL DWORD PTR DS:[<&KERNEL32.WriteFile>>; kernel32.WriteFile
004035E0   85C0             TEST EAX,EAX
004035E2   74 0B            JE SHORT app5win.004035EF
004035E4   8B45 F4          MOV EAX,DWORD PTR SS:[EBP-C]
004035E7   897D 08          MOV DWORD PTR SS:[EBP+8],EDI
004035EA   8945 F8          MOV DWORD PTR SS:[EBP-8],EAX
004035ED  ^EB A7            JMP SHORT app5win.00403596
004035EF   FF15 60604000    CALL DWORD PTR DS:[<&KERNEL32.GetLastErr>; kernel32.GetLastError
004035F5   8945 08          MOV DWORD PTR SS:[EBP+8],EAX
004035F8  ^EB 9C            JMP SHORT app5win.00403596
004035FA   FF75 08          PUSH DWORD PTR SS:[EBP+8]
004035FD   E8 F0130000      CALL app5win.004049F2
00403602   59               POP ECX
00403603   83C8 FF          OR EAX,FFFFFFFF
00403606   EB 2C            JMP SHORT app5win.00403634
00403608   8B03             MOV EAX,DWORD PTR DS:[EBX]
0040360A   F64430 04 40     TEST BYTE PTR DS:[EAX+ESI+4],40
0040360F   74 0C            JE SHORT app5win.0040361D
00403611   8B45 0C          MOV EAX,DWORD PTR SS:[EBP+C]
00403614   8038 1A          CMP BYTE PTR DS:[EAX],1A
00403617  ^0F84 AAFEFFFF    JE app5win.004034C7
0040361D   E8 43140000      CALL app5win.00404A65
00403622   C700 1C000000    MOV DWORD PTR DS:[EAX],1C
00403628   E8 41140000      CALL app5win.00404A6E
0040362D   8938             MOV DWORD PTR DS:[EAX],EDI
0040362F  ^EB D2            JMP SHORT app5win.00403603
00403631   2B45 F0          SUB EAX,DWORD PTR SS:[EBP-10]
00403634   5F               POP EDI
00403635   5E               POP ESI
00403636   5B               POP EBX
00403637   C9               LEAVE
00403638   C3               RETN
00403639   FF05 1C7D4000    INC DWORD PTR DS:[407D1C]
0040363F   68 00100000      PUSH 1000
00403644   E8 EBF9FFFF      CALL app5win.00403034
00403649   59               POP ECX
0040364A   8B4C24 04        MOV ECX,DWORD PTR SS:[ESP+4]
0040364E   85C0             TEST EAX,EAX
00403650   8941 08          MOV DWORD PTR DS:[ECX+8],EAX
00403653   74 0D            JE SHORT app5win.00403662
00403655   8349 0C 08       OR DWORD PTR DS:[ECX+C],8
00403659   C741 18 00100000 MOV DWORD PTR DS:[ECX+18],1000
00403660   EB 11            JMP SHORT app5win.00403673
00403662   8349 0C 04       OR DWORD PTR DS:[ECX+C],4
00403666   8D41 14          LEA EAX,DWORD PTR DS:[ECX+14]
00403669   8941 08          MOV DWORD PTR DS:[ECX+8],EAX
0040366C   C741 18 02000000 MOV DWORD PTR DS:[ECX+18],2
00403673   8B41 08          MOV EAX,DWORD PTR DS:[ECX+8]
00403676   8361 04 00       AND DWORD PTR DS:[ECX+4],0
0040367A   8901             MOV DWORD PTR DS:[ECX],EAX
0040367C   C3               RETN
0040367D   CC               INT3
0040367E   CC               INT3
0040367F   CC               INT3
00403680   55               PUSH EBP
00403681   8BEC             MOV EBP,ESP
00403683   57               PUSH EDI
00403684   56               PUSH ESI
00403685   8B75 0C          MOV ESI,DWORD PTR SS:[EBP+C]
00403688   8B4D 10          MOV ECX,DWORD PTR SS:[EBP+10]
0040368B   8B7D 08          MOV EDI,DWORD PTR SS:[EBP+8]
0040368E   8BC1             MOV EAX,ECX
00403690   8BD1             MOV EDX,ECX
00403692   03C6             ADD EAX,ESI
00403694   3BFE             CMP EDI,ESI
00403696   76 08            JBE SHORT app5win.004036A0
00403698   3BF8             CMP EDI,EAX
0040369A   0F82 78010000    JB app5win.00403818
004036A0   F7C7 03000000    TEST EDI,3
004036A6   75 14            JNZ SHORT app5win.004036BC
004036A8   C1E9 02          SHR ECX,2
004036AB   83E2 03          AND EDX,3
004036AE   83F9 08          CMP ECX,8
004036B1   72 29            JB SHORT app5win.004036DC
004036B3   F3:A5            REP MOVS DWORD PTR ES:[EDI],DWORD PTR DS>
004036B5   FF2495 C8374000  JMP DWORD PTR DS:[EDX*4+4037C8]
004036BC   8BC7             MOV EAX,EDI
004036BE   BA 03000000      MOV EDX,3
004036C3   83E9 04          SUB ECX,4
004036C6   72 0C            JB SHORT app5win.004036D4
004036C8   83E0 03          AND EAX,3
004036CB   03C8             ADD ECX,EAX
004036CD   FF2485 E0364000  JMP DWORD PTR DS:[EAX*4+4036E0]
004036D4   FF248D D8374000  JMP DWORD PTR DS:[ECX*4+4037D8]
004036DB   90               NOP
004036DC   FF248D 5C374000  JMP DWORD PTR DS:[ECX*4+40375C]
004036E3   90               NOP
004036E4   F0:36:40         LOCK INC EAX                             ; LOCK prefix is not allowed; Switch table (1-based) used at 004036CD
004036E7   001C37           ADD BYTE PTR DS:[EDI+ESI],BL
004036EA   40               INC EAX
004036EB   0040 37          ADD BYTE PTR DS:[EAX+37],AL
004036EE   40               INC EAX
004036EF   0023             ADD BYTE PTR DS:[EBX],AH
004036F1   D18A 0688078A    ROR DWORD PTR DS:[EDX+8A078806],1
004036F7   46               INC ESI
004036F8   0188 47018A46    ADD DWORD PTR DS:[EAX+468A0147],ECX
004036FE   02C1             ADD AL,CL
00403700  -E9 02884702      JMP 0287BF07
00403705   83C6 03          ADD ESI,3
00403708   83C7 03          ADD EDI,3
0040370B   83F9 08          CMP ECX,8
0040370E  ^72 CC            JB SHORT app5win.004036DC
00403710   F3:A5            REP MOVS DWORD PTR ES:[EDI],DWORD PTR DS>
00403712   FF2495 C8374000  JMP DWORD PTR DS:[EDX*4+4037C8]
00403719   8D49 00          LEA ECX,DWORD PTR DS:[ECX]
0040371C   23D1             AND EDX,ECX
0040371E   8A06             MOV AL,BYTE PTR DS:[ESI]
00403720   8807             MOV BYTE PTR DS:[EDI],AL
00403722   8A46 01          MOV AL,BYTE PTR DS:[ESI+1]
00403725   C1E9 02          SHR ECX,2
00403728   8847 01          MOV BYTE PTR DS:[EDI+1],AL
0040372B   83C6 02          ADD ESI,2
0040372E   83C7 02          ADD EDI,2
00403731   83F9 08          CMP ECX,8
00403734  ^72 A6            JB SHORT app5win.004036DC
00403736   F3:A5            REP MOVS DWORD PTR ES:[EDI],DWORD PTR DS>
00403738   FF2495 C8374000  JMP DWORD PTR DS:[EDX*4+4037C8]
0040373F   90               NOP
00403740   23D1             AND EDX,ECX
00403742   8A06             MOV AL,BYTE PTR DS:[ESI]
00403744   8807             MOV BYTE PTR DS:[EDI],AL
00403746   46               INC ESI
00403747   C1E9 02          SHR ECX,2
0040374A   47               INC EDI
0040374B   83F9 08          CMP ECX,8
0040374E  ^72 8C            JB SHORT app5win.004036DC
00403750   F3:A5            REP MOVS DWORD PTR ES:[EDI],DWORD PTR DS>
00403752   FF2495 C8374000  JMP DWORD PTR DS:[EDX*4+4037C8]
00403759   8D49 00          LEA ECX,DWORD PTR DS:[ECX]
0040375C   BF 374000AC      MOV EDI,AC004037                         ; Switch table used at 004036DC
00403761   37               AAA
00403762   40               INC EAX
00403763   00A437 40009C37  ADD BYTE PTR DS:[EDI+ESI+379C0040],AH
0040376A   40               INC EAX
0040376B   009437 40008C37  ADD BYTE PTR DS:[EDI+ESI+378C0040],DL
00403772   40               INC EAX
00403773   008437 40007C37  ADD BYTE PTR DS:[EDI+ESI+377C0040],AL
0040377A   40               INC EAX
0040377B   008B 448EE489    ADD BYTE PTR DS:[EBX+89E48E44],CL
00403781   44               INC ESP
00403782   8F               ???                                      ; Unknown command
00403783   E4 8B            IN AL,8B                                 ; I/O command
00403785   44               INC ESP
00403786   8EE8             MOV GS,AX                                ; Modification of segment register
00403788   89448F E8        MOV DWORD PTR DS:[EDI+ECX*4-18],EAX
0040378C   8B448E EC        MOV EAX,DWORD PTR DS:[ESI+ECX*4-14]
00403790   89448F EC        MOV DWORD PTR DS:[EDI+ECX*4-14],EAX
00403794   8B448E F0        MOV EAX,DWORD PTR DS:[ESI+ECX*4-10]
00403798   89448F F0        MOV DWORD PTR DS:[EDI+ECX*4-10],EAX
0040379C   8B448E F4        MOV EAX,DWORD PTR DS:[ESI+ECX*4-C]
004037A0   89448F F4        MOV DWORD PTR DS:[EDI+ECX*4-C],EAX
004037A4   8B448E F8        MOV EAX,DWORD PTR DS:[ESI+ECX*4-8]
004037A8   89448F F8        MOV DWORD PTR DS:[EDI+ECX*4-8],EAX
004037AC   8B448E FC        MOV EAX,DWORD PTR DS:[ESI+ECX*4-4]
004037B0   89448F FC        MOV DWORD PTR DS:[EDI+ECX*4-4],EAX
004037B4   8D048D 00000000  LEA EAX,DWORD PTR DS:[ECX*4]
004037BB   03F0             ADD ESI,EAX
004037BD   03F8             ADD EDI,EAX
004037BF   FF2495 C8374000  JMP DWORD PTR DS:[EDX*4+4037C8]
004037C6   8BFF             MOV EDI,EDI
004037C8   D837             FDIV DWORD PTR DS:[EDI]                  ; Switch table used at 00403712 and other places
004037CA   40               INC EAX
004037CB   00E0             ADD AL,AH
004037CD   37               AAA
004037CE   40               INC EAX
004037CF   00EC             ADD AH,CH
004037D1   37               AAA
004037D2   40               INC EAX
004037D3   0000             ADD BYTE PTR DS:[EAX],AL
004037D5   3840 00          CMP BYTE PTR DS:[EAX],AL
004037D8   8B45 08          MOV EAX,DWORD PTR SS:[EBP+8]
004037DB   5E               POP ESI
004037DC   5F               POP EDI
004037DD   C9               LEAVE
004037DE   C3               RETN
004037DF   90               NOP
004037E0   8A06             MOV AL,BYTE PTR DS:[ESI]
004037E2   8807             MOV BYTE PTR DS:[EDI],AL
004037E4   8B45 08          MOV EAX,DWORD PTR SS:[EBP+8]
004037E7   5E               POP ESI
004037E8   5F               POP EDI
004037E9   C9               LEAVE
004037EA   C3               RETN
004037EB   90               NOP
004037EC   8A06             MOV AL,BYTE PTR DS:[ESI]
004037EE   8807             MOV BYTE PTR DS:[EDI],AL
004037F0   8A46 01          MOV AL,BYTE PTR DS:[ESI+1]
004037F3   8847 01          MOV BYTE PTR DS:[EDI+1],AL
004037F6   8B45 08          MOV EAX,DWORD PTR SS:[EBP+8]
004037F9   5E               POP ESI
004037FA   5F               POP EDI
004037FB   C9               LEAVE
004037FC   C3               RETN
004037FD   8D49 00          LEA ECX,DWORD PTR DS:[ECX]
00403800   8A06             MOV AL,BYTE PTR DS:[ESI]
00403802   8807             MOV BYTE PTR DS:[EDI],AL
00403804   8A46 01          MOV AL,BYTE PTR DS:[ESI+1]
00403807   8847 01          MOV BYTE PTR DS:[EDI+1],AL
0040380A   8A46 02          MOV AL,BYTE PTR DS:[ESI+2]
0040380D   8847 02          MOV BYTE PTR DS:[EDI+2],AL
00403810   8B45 08          MOV EAX,DWORD PTR SS:[EBP+8]
00403813   5E               POP ESI
00403814   5F               POP EDI
00403815   C9               LEAVE
00403816   C3               RETN
00403817   90               NOP
00403818   8D7431 FC        LEA ESI,DWORD PTR DS:[ECX+ESI-4]
0040381C   8D7C39 FC        LEA EDI,DWORD PTR DS:[ECX+EDI-4]
00403820   F7C7 03000000    TEST EDI,3
00403826   75 24            JNZ SHORT app5win.0040384C
00403828   C1E9 02          SHR ECX,2
0040382B   83E2 03          AND EDX,3
0040382E   83F9 08          CMP ECX,8
00403831   72 0D            JB SHORT app5win.00403840
00403833   FD               STD
00403834   F3:A5            REP MOVS DWORD PTR ES:[EDI],DWORD PTR DS>
00403836   FC               CLD
00403837   FF2495 60394000  JMP DWORD PTR DS:[EDX*4+403960]
0040383E   8BFF             MOV EDI,EDI
00403840   F7D9             NEG ECX
00403842   FF248D 10394000  JMP DWORD PTR DS:[ECX*4+403910]
00403849   8D49 00          LEA ECX,DWORD PTR DS:[ECX]
0040384C   8BC7             MOV EAX,EDI
0040384E   BA 03000000      MOV EDX,3                                ; Switch (cases 0..3)
00403853   83F9 04          CMP ECX,4
00403856   72 0C            JB SHORT app5win.00403864
00403858   83E0 03          AND EAX,3                                ; Default case of switch 0040384E
0040385B   2BC8             SUB ECX,EAX
0040385D   FF2485 68384000  JMP DWORD PTR DS:[EAX*4+403868]
00403864   FF248D 60394000  JMP DWORD PTR DS:[ECX*4+403960]
0040386B   90               NOP
0040386C   78 38            JS SHORT app5win.004038A6                ; Switch table (1-based) used at 0040385D
0040386E   40               INC EAX
0040386F   0098 384000C0    ADD BYTE PTR DS:[EAX+C0004038],BL
00403875   3840 00          CMP BYTE PTR DS:[EAX],AL
00403878   8A46 03          MOV AL,BYTE PTR DS:[ESI+3]
0040387B   23D1             AND EDX,ECX
0040387D   8847 03          MOV BYTE PTR DS:[EDI+3],AL
00403880   4E               DEC ESI
00403881   C1E9 02          SHR ECX,2
00403884   4F               DEC EDI
00403885   83F9 08          CMP ECX,8
00403888  ^72 B6            JB SHORT app5win.00403840
0040388A   FD               STD
0040388B   F3:A5            REP MOVS DWORD PTR ES:[EDI],DWORD PTR DS>
0040388D   FC               CLD
0040388E   FF2495 60394000  JMP DWORD PTR DS:[EDX*4+403960]
00403895   8D49 00          LEA ECX,DWORD PTR DS:[ECX]
00403898   8A46 03          MOV AL,BYTE PTR DS:[ESI+3]
0040389B   23D1             AND EDX,ECX
0040389D   8847 03          MOV BYTE PTR DS:[EDI+3],AL
004038A0   8A46 02          MOV AL,BYTE PTR DS:[ESI+2]
004038A3   C1E9 02          SHR ECX,2
004038A6   8847 02          MOV BYTE PTR DS:[EDI+2],AL
004038A9   83EE 02          SUB ESI,2
004038AC   83EF 02          SUB EDI,2
004038AF   83F9 08          CMP ECX,8
004038B2  ^72 8C            JB SHORT app5win.00403840
004038B4   FD               STD
004038B5   F3:A5            REP MOVS DWORD PTR ES:[EDI],DWORD PTR DS>
004038B7   FC               CLD
004038B8   FF2495 60394000  JMP DWORD PTR DS:[EDX*4+403960]
004038BF   90               NOP
004038C0   8A46 03          MOV AL,BYTE PTR DS:[ESI+3]
004038C3   23D1             AND EDX,ECX
004038C5   8847 03          MOV BYTE PTR DS:[EDI+3],AL
004038C8   8A46 02          MOV AL,BYTE PTR DS:[ESI+2]
004038CB   8847 02          MOV BYTE PTR DS:[EDI+2],AL
004038CE   8A46 01          MOV AL,BYTE PTR DS:[ESI+1]
004038D1   C1E9 02          SHR ECX,2
004038D4   8847 01          MOV BYTE PTR DS:[EDI+1],AL
004038D7   83EE 03          SUB ESI,3
004038DA   83EF 03          SUB EDI,3
004038DD   83F9 08          CMP ECX,8
004038E0  ^0F82 5AFFFFFF    JB app5win.00403840
004038E6   FD               STD
004038E7   F3:A5            REP MOVS DWORD PTR ES:[EDI],DWORD PTR DS>
004038E9   FC               CLD
004038EA   FF2495 60394000  JMP DWORD PTR DS:[EDX*4+403960]
004038F1   8D49 00          LEA ECX,DWORD PTR DS:[ECX]
004038F4   14 39            ADC AL,39
004038F6   40               INC EAX
004038F7   001C39           ADD BYTE PTR DS:[ECX+EDI],BL
004038FA   40               INC EAX
004038FB   002439           ADD BYTE PTR DS:[ECX+EDI],AH
004038FE   40               INC EAX
004038FF   002C39           ADD BYTE PTR DS:[ECX+EDI],CH
00403902   40               INC EAX
00403903   003439           ADD BYTE PTR DS:[ECX+EDI],DH
00403906   40               INC EAX
00403907   003C39           ADD BYTE PTR DS:[ECX+EDI],BH
0040390A   40               INC EAX
0040390B   004439 40        ADD BYTE PTR DS:[ECX+EDI+40],AL
0040390F   0057 39          ADD BYTE PTR DS:[EDI+39],DL
00403912   40               INC EAX
00403913   008B 448E1C89    ADD BYTE PTR DS:[EBX+891C8E44],CL
00403919   44               INC ESP
0040391A   8F               ???                                      ; Unknown command
0040391B   1C 8B            SBB AL,8B
0040391D   44               INC ESP
0040391E   8E18             MOV DS,WORD PTR DS:[EAX]                 ; Modification of segment register
00403920   89448F 18        MOV DWORD PTR DS:[EDI+ECX*4+18],EAX
00403924   8B448E 14        MOV EAX,DWORD PTR DS:[ESI+ECX*4+14]
00403928   89448F 14        MOV DWORD PTR DS:[EDI+ECX*4+14],EAX
0040392C   8B448E 10        MOV EAX,DWORD PTR DS:[ESI+ECX*4+10]
00403930   89448F 10        MOV DWORD PTR DS:[EDI+ECX*4+10],EAX
00403934   8B448E 0C        MOV EAX,DWORD PTR DS:[ESI+ECX*4+C]
00403938   89448F 0C        MOV DWORD PTR DS:[EDI+ECX*4+C],EAX
0040393C   8B448E 08        MOV EAX,DWORD PTR DS:[ESI+ECX*4+8]
00403940   89448F 08        MOV DWORD PTR DS:[EDI+ECX*4+8],EAX
00403944   8B448E 04        MOV EAX,DWORD PTR DS:[ESI+ECX*4+4]
00403948   89448F 04        MOV DWORD PTR DS:[EDI+ECX*4+4],EAX
0040394C   8D048D 00000000  LEA EAX,DWORD PTR DS:[ECX*4]
00403953   03F0             ADD ESI,EAX
00403955   03F8             ADD EDI,EAX
00403957   FF2495 60394000  JMP DWORD PTR DS:[EDX*4+403960]
0040395E   8BFF             MOV EDI,EDI
00403960   70 39            JO SHORT app5win.0040399B                ; Switch table used at 00403864 and other places
00403962   40               INC EAX
00403963   0078 39          ADD BYTE PTR DS:[EAX+39],BH
00403966   40               INC EAX
00403967   0088 3940009C    ADD BYTE PTR DS:[EAX+9C004039],CL
0040396D   3940 00          CMP DWORD PTR DS:[EAX],EAX
00403970   8B45 08          MOV EAX,DWORD PTR SS:[EBP+8]             ; Case 0 of switch 0040384E
00403973   5E               POP ESI
00403974   5F               POP EDI
00403975   C9               LEAVE
00403976   C3               RETN
00403977   90               NOP
00403978   8A46 03          MOV AL,BYTE PTR DS:[ESI+3]               ; Case 1 of switch 0040384E
0040397B   8847 03          MOV BYTE PTR DS:[EDI+3],AL
0040397E   8B45 08          MOV EAX,DWORD PTR SS:[EBP+8]
00403981   5E               POP ESI
00403982   5F               POP EDI
00403983   C9               LEAVE
00403984   C3               RETN
00403985   8D49 00          LEA ECX,DWORD PTR DS:[ECX]
00403988   8A46 03          MOV AL,BYTE PTR DS:[ESI+3]               ; Case 2 of switch 0040384E
0040398B   8847 03          MOV BYTE PTR DS:[EDI+3],AL
0040398E   8A46 02          MOV AL,BYTE PTR DS:[ESI+2]
00403991   8847 02          MOV BYTE PTR DS:[EDI+2],AL
00403994   8B45 08          MOV EAX,DWORD PTR SS:[EBP+8]
00403997   5E               POP ESI
00403998   5F               POP EDI
00403999   C9               LEAVE
0040399A   C3               RETN
0040399B   90               NOP
0040399C   8A46 03          MOV AL,BYTE PTR DS:[ESI+3]               ; Case 3 of switch 0040384E
0040399F   8847 03          MOV BYTE PTR DS:[EDI+3],AL
004039A2   8A46 02          MOV AL,BYTE PTR DS:[ESI+2]
004039A5   8847 02          MOV BYTE PTR DS:[EDI+2],AL
004039A8   8A46 01          MOV AL,BYTE PTR DS:[ESI+1]
004039AB   8847 01          MOV BYTE PTR DS:[EDI+1],AL
004039AE   8B45 08          MOV EAX,DWORD PTR SS:[EBP+8]
004039B1   5E               POP ESI
004039B2   5F               POP EDI
004039B3   C9               LEAVE
004039B4   C3               RETN
004039B5   56               PUSH ESI
004039B6   8B7424 08        MOV ESI,DWORD PTR SS:[ESP+8]
004039BA   85F6             TEST ESI,ESI
004039BC   74 3D            JE SHORT app5win.004039FB
004039BE   6A 09            PUSH 9
004039C0   E8 F9F5FFFF      CALL app5win.00402FBE
004039C5   56               PUSH ESI
004039C6   E8 57050000      CALL app5win.00403F22
004039CB   59               POP ECX
004039CC   85C0             TEST EAX,EAX
004039CE   59               POP ECX
004039CF   74 13            JE SHORT app5win.004039E4
004039D1   56               PUSH ESI
004039D2   50               PUSH EAX
004039D3   E8 75050000      CALL app5win.00403F4D
004039D8   6A 09            PUSH 9
004039DA   E8 40F6FFFF      CALL app5win.0040301F
004039DF   83C4 0C          ADD ESP,0C
004039E2   5E               POP ESI
004039E3   C3               RETN
004039E4   6A 09            PUSH 9
004039E6   E8 34F6FFFF      CALL app5win.0040301F
004039EB   59               POP ECX
004039EC   56               PUSH ESI
004039ED   6A 00            PUSH 0
004039EF   FF35 A8824000    PUSH DWORD PTR DS:[4082A8]
004039F5   FF15 70604000    CALL DWORD PTR DS:[<&KERNEL32.HeapFree>] ; kernel32.HeapFree
004039FB   5E               POP ESI
004039FC   C3               RETN
004039FD   CC               INT3
004039FE   CC               INT3
004039FF   CC               INT3
00403A00   57               PUSH EDI
00403A01   8B7C24 08        MOV EDI,DWORD PTR SS:[ESP+8]
00403A05   EB 6A            JMP SHORT app5win.00403A71
00403A07   8DA424 00000000  LEA ESP,DWORD PTR SS:[ESP]
00403A0E   8BFF             MOV EDI,EDI
00403A10   8B4C24 04        MOV ECX,DWORD PTR SS:[ESP+4]
00403A14   57               PUSH EDI
00403A15   F7C1 03000000    TEST ECX,3
00403A1B   74 0F            JE SHORT app5win.00403A2C
00403A1D   8A01             /MOV AL,BYTE PTR DS:[ECX]
00403A1F   41               |INC ECX
00403A20   84C0             |TEST AL,AL
00403A22   74 3B            |JE SHORT app5win.00403A5F
00403A24   F7C1 03000000    |TEST ECX,3
00403A2A  ^75 F1            \JNZ SHORT app5win.00403A1D
00403A2C   8B01             /MOV EAX,DWORD PTR DS:[ECX]
00403A2E   BA FFFEFE7E      |MOV EDX,7EFEFEFF
00403A33   03D0             |ADD EDX,EAX
00403A35   83F0 FF          |XOR EAX,FFFFFFFF
00403A38   33C2             |XOR EAX,EDX
00403A3A   83C1 04          |ADD ECX,4
00403A3D   A9 00010181      |TEST EAX,81010100
00403A42  ^74 E8            |JE SHORT app5win.00403A2C
00403A44   8B41 FC          |MOV EAX,DWORD PTR DS:[ECX-4]
00403A47   84C0             |TEST AL,AL
00403A49   74 23            |JE SHORT app5win.00403A6E
00403A4B   84E4             |TEST AH,AH
00403A4D   74 1A            |JE SHORT app5win.00403A69
00403A4F   A9 0000FF00      |TEST EAX,0FF0000
00403A54   74 0E            |JE SHORT app5win.00403A64
00403A56   A9 000000FF      |TEST EAX,FF000000
00403A5B   74 02            |JE SHORT app5win.00403A5F
00403A5D  ^EB CD            \JMP SHORT app5win.00403A2C
00403A5F   8D79 FF          LEA EDI,DWORD PTR DS:[ECX-1]
00403A62   EB 0D            JMP SHORT app5win.00403A71
00403A64   8D79 FE          LEA EDI,DWORD PTR DS:[ECX-2]
00403A67   EB 08            JMP SHORT app5win.00403A71
00403A69   8D79 FD          LEA EDI,DWORD PTR DS:[ECX-3]
00403A6C   EB 03            JMP SHORT app5win.00403A71
00403A6E   8D79 FC          LEA EDI,DWORD PTR DS:[ECX-4]
00403A71   8B4C24 0C        MOV ECX,DWORD PTR SS:[ESP+C]
00403A75   F7C1 03000000    TEST ECX,3
00403A7B   74 19            JE SHORT app5win.00403A96
00403A7D   8A11             /MOV DL,BYTE PTR DS:[ECX]
00403A7F   41               |INC ECX
00403A80   84D2             |TEST DL,DL
00403A82   74 64            |JE SHORT app5win.00403AE8
00403A84   8817             |MOV BYTE PTR DS:[EDI],DL
00403A86   47               |INC EDI
00403A87   F7C1 03000000    |TEST ECX,3
00403A8D  ^75 EE            \JNZ SHORT app5win.00403A7D
00403A8F   EB 05            JMP SHORT app5win.00403A96
00403A91   8917             /MOV DWORD PTR DS:[EDI],EDX
00403A93   83C7 04          |ADD EDI,4
00403A96   BA FFFEFE7E       MOV EDX,7EFEFEFF
00403A9B   8B01             |MOV EAX,DWORD PTR DS:[ECX]
00403A9D   03D0             |ADD EDX,EAX
00403A9F   83F0 FF          |XOR EAX,FFFFFFFF
00403AA2   33C2             |XOR EAX,EDX
00403AA4   8B11             |MOV EDX,DWORD PTR DS:[ECX]
00403AA6   83C1 04          |ADD ECX,4
00403AA9   A9 00010181      |TEST EAX,81010100
00403AAE  ^74 E1            |JE SHORT app5win.00403A91
00403AB0   84D2             |TEST DL,DL
00403AB2   74 34            |JE SHORT app5win.00403AE8
00403AB4   84F6             |TEST DH,DH
00403AB6   74 27            |JE SHORT app5win.00403ADF
00403AB8   F7C2 0000FF00    |TEST EDX,0FF0000
00403ABE   74 12            |JE SHORT app5win.00403AD2
00403AC0   F7C2 000000FF    |TEST EDX,FF000000
00403AC6   74 02            |JE SHORT app5win.00403ACA
00403AC8  ^EB C7            \JMP SHORT app5win.00403A91
00403ACA   8917             MOV DWORD PTR DS:[EDI],EDX
00403ACC   8B4424 08        MOV EAX,DWORD PTR SS:[ESP+8]
00403AD0   5F               POP EDI
00403AD1   C3               RETN
00403AD2   66:8917          MOV WORD PTR DS:[EDI],DX
00403AD5   8B4424 08        MOV EAX,DWORD PTR SS:[ESP+8]
00403AD9   C647 02 00       MOV BYTE PTR DS:[EDI+2],0
00403ADD   5F               POP EDI
00403ADE   C3               RETN
00403ADF   66:8917          MOV WORD PTR DS:[EDI],DX
00403AE2   8B4424 08        MOV EAX,DWORD PTR SS:[ESP+8]
00403AE6   5F               POP EDI
00403AE7   C3               RETN
00403AE8   8817             MOV BYTE PTR DS:[EDI],DL
00403AEA   8B4424 08        MOV EAX,DWORD PTR SS:[ESP+8]
00403AEE   5F               POP EDI
00403AEF   C3               RETN
00403AF0   55               PUSH EBP
00403AF1   8BEC             MOV EBP,ESP
00403AF3   83EC 18          SUB ESP,18
00403AF6   53               PUSH EBX
00403AF7   56               PUSH ESI
00403AF8   57               PUSH EDI
00403AF9   6A 19            PUSH 19
00403AFB   E8 BEF4FFFF      CALL app5win.00402FBE
00403B00   FF75 08          PUSH DWORD PTR SS:[EBP+8]
00403B03   E8 95010000      CALL app5win.00403C9D
00403B08   8BD8             MOV EBX,EAX
00403B0A   59               POP ECX
00403B0B   3B1D 80804000    CMP EBX,DWORD PTR DS:[408080]
00403B11   59               POP ECX
00403B12   895D 08          MOV DWORD PTR SS:[EBP+8],EBX
00403B15   75 07            JNZ SHORT app5win.00403B1E
00403B17   33F6             XOR ESI,ESI
00403B19   E9 70010000      JMP app5win.00403C8E
00403B1E   85DB             TEST EBX,EBX
00403B20   0F84 56010000    JE app5win.00403C7C
00403B26   33D2             XOR EDX,EDX
00403B28   B8 58774000      MOV EAX,app5win.00407758
00403B2D   3918             /CMP DWORD PTR DS:[EAX],EBX
00403B2F   74 74            |JE SHORT app5win.00403BA5
00403B31   83C0 30          |ADD EAX,30
00403B34   42               |INC EDX
00403B35   3D 48784000      |CMP EAX,app5win.00407848
00403B3A  ^7C F1            \JL SHORT app5win.00403B2D
00403B3C   8D45 E8          LEA EAX,DWORD PTR SS:[EBP-18]
00403B3F   50               PUSH EAX
00403B40   53               PUSH EBX
00403B41   FF15 90604000    CALL DWORD PTR DS:[<&KERNEL32.GetCPInfo>>; kernel32.GetCPInfo
00403B47   6A 01            PUSH 1
00403B49   5E               POP ESI
00403B4A   3BC6             CMP EAX,ESI
00403B4C   0F85 21010000    JNZ app5win.00403C73
00403B52   6A 40            PUSH 40
00403B54   8325 A4824000 00 AND DWORD PTR DS:[4082A4],0
00403B5B   59               POP ECX
00403B5C   33C0             XOR EAX,EAX
00403B5E   BF A0814000      MOV EDI,app5win.004081A0
00403B63   3975 E8          CMP DWORD PTR SS:[EBP-18],ESI
00403B66   F3:AB            REP STOS DWORD PTR ES:[EDI]
00403B68   AA               STOS BYTE PTR ES:[EDI]
00403B69   891D 80804000    MOV DWORD PTR DS:[408080],EBX
00403B6F   0F86 EB000000    JBE app5win.00403C60
00403B75   807D EE 00       CMP BYTE PTR SS:[EBP-12],0
00403B79   0F84 BC000000    JE app5win.00403C3B
00403B7F   8D4D EF          LEA ECX,DWORD PTR SS:[EBP-11]
00403B82   8A11             MOV DL,BYTE PTR DS:[ECX]
00403B84   84D2             TEST DL,DL
00403B86   0F84 AF000000    JE app5win.00403C3B
00403B8C   0FB641 FF        MOVZX EAX,BYTE PTR DS:[ECX-1]
00403B90   0FB6D2           MOVZX EDX,DL
00403B93   3BC2             /CMP EAX,EDX
00403B95   0F87 94000000    |JA app5win.00403C2F
00403B9B   8088 A1814000 04 |OR BYTE PTR DS:[EAX+4081A1],4
00403BA2   40               |INC EAX
00403BA3  ^EB EE            \JMP SHORT app5win.00403B93
00403BA5   8365 FC 00       AND DWORD PTR SS:[EBP-4],0
00403BA9   6A 40            PUSH 40
00403BAB   59               POP ECX
00403BAC   33C0             XOR EAX,EAX
00403BAE   BF A0814000      MOV EDI,app5win.004081A0
00403BB3   8D3452           LEA ESI,DWORD PTR DS:[EDX+EDX*2]
00403BB6   F3:AB            REP STOS DWORD PTR ES:[EDI]
00403BB8   C1E6 04          SHL ESI,4
00403BBB   AA               STOS BYTE PTR ES:[EDI]
00403BBC   8D9E 68774000    LEA EBX,DWORD PTR DS:[ESI+407768]
00403BC2   803B 00          /CMP BYTE PTR DS:[EBX],0
00403BC5   8BCB             |MOV ECX,EBX
00403BC7   74 2C            |JE SHORT app5win.00403BF5
00403BC9   8A51 01          |/MOV DL,BYTE PTR DS:[ECX+1]
00403BCC   84D2             ||TEST DL,DL
00403BCE   74 25            ||JE SHORT app5win.00403BF5
00403BD0   0FB601           ||MOVZX EAX,BYTE PTR DS:[ECX]
00403BD3   0FB6FA           ||MOVZX EDI,DL
00403BD6   3BC7             ||CMP EAX,EDI
00403BD8   77 14            ||JA SHORT app5win.00403BEE
00403BDA   8B55 FC          ||MOV EDX,DWORD PTR SS:[EBP-4]
00403BDD   8A92 50774000    ||MOV DL,BYTE PTR DS:[EDX+407750]
00403BE3   0890 A1814000    ||/OR BYTE PTR DS:[EAX+4081A1],DL
00403BE9   40               |||INC EAX
00403BEA   3BC7             |||CMP EAX,EDI
00403BEC  ^76 F5            ||\JBE SHORT app5win.00403BE3
00403BEE   41               ||INC ECX
00403BEF   41               ||INC ECX
00403BF0   8039 00          ||CMP BYTE PTR DS:[ECX],0
00403BF3  ^75 D4            |\JNZ SHORT app5win.00403BC9
00403BF5   FF45 FC          |INC DWORD PTR SS:[EBP-4]
00403BF8   83C3 08          |ADD EBX,8
00403BFB   837D FC 04       |CMP DWORD PTR SS:[EBP-4],4
00403BFF  ^72 C1            \JB SHORT app5win.00403BC2
00403C01   8B45 08          MOV EAX,DWORD PTR SS:[EBP+8]
00403C04   C705 9C804000 01>MOV DWORD PTR DS:[40809C],1
00403C0E   50               PUSH EAX
00403C0F   A3 80804000      MOV DWORD PTR DS:[408080],EAX
00403C14   E8 CE000000      CALL app5win.00403CE7
00403C19   8DB6 5C774000    LEA ESI,DWORD PTR DS:[ESI+40775C]
00403C1F   BF 90804000      MOV EDI,app5win.00408090
00403C24   A5               MOVS DWORD PTR ES:[EDI],DWORD PTR DS:[ES>
00403C25   A5               MOVS DWORD PTR ES:[EDI],DWORD PTR DS:[ES>
00403C26   59               POP ECX
00403C27   A3 A4824000      MOV DWORD PTR DS:[4082A4],EAX
00403C2C   A5               MOVS DWORD PTR ES:[EDI],DWORD PTR DS:[ES>
00403C2D   EB 52            JMP SHORT app5win.00403C81
00403C2F   41               INC ECX
00403C30   41               INC ECX
00403C31   8079 FF 00       CMP BYTE PTR DS:[ECX-1],0
00403C35  ^0F85 47FFFFFF    JNZ app5win.00403B82
00403C3B   8BC6             MOV EAX,ESI
00403C3D   8088 A1814000 08 /OR BYTE PTR DS:[EAX+4081A1],8
00403C44   40               |INC EAX
00403C45   3D FF000000      |CMP EAX,0FF
00403C4A  ^72 F1            \JB SHORT app5win.00403C3D
00403C4C   53               PUSH EBX
00403C4D   E8 95000000      CALL app5win.00403CE7
00403C52   59               POP ECX
00403C53   A3 A4824000      MOV DWORD PTR DS:[4082A4],EAX
00403C58   8935 9C804000    MOV DWORD PTR DS:[40809C],ESI
00403C5E   EB 07            JMP SHORT app5win.00403C67
00403C60   8325 9C804000 00 AND DWORD PTR DS:[40809C],0
00403C67   33C0             XOR EAX,EAX
00403C69   BF 90804000      MOV EDI,app5win.00408090
00403C6E   AB               STOS DWORD PTR ES:[EDI]
00403C6F   AB               STOS DWORD PTR ES:[EDI]
00403C70   AB               STOS DWORD PTR ES:[EDI]
00403C71   EB 0E            JMP SHORT app5win.00403C81
00403C73   833D D87E4000 00 CMP DWORD PTR DS:[407ED8],0
00403C7A   74 0F            JE SHORT app5win.00403C8B
00403C7C   E8 99000000      CALL app5win.00403D1A
00403C81   E8 BD000000      CALL app5win.00403D43
00403C86  ^E9 8CFEFFFF      JMP app5win.00403B17
00403C8B   83CE FF          OR ESI,FFFFFFFF
00403C8E   6A 19            PUSH 19
00403C90   E8 8AF3FFFF      CALL app5win.0040301F
00403C95   59               POP ECX
00403C96   8BC6             MOV EAX,ESI
00403C98   5F               POP EDI
00403C99   5E               POP ESI
00403C9A   5B               POP EBX
00403C9B   C9               LEAVE
00403C9C   C3               RETN
00403C9D   8B4424 04        MOV EAX,DWORD PTR SS:[ESP+4]
00403CA1   8325 D87E4000 00 AND DWORD PTR DS:[407ED8],0
00403CA8   83F8 FE          CMP EAX,-2
00403CAB   75 10            JNZ SHORT app5win.00403CBD
00403CAD   C705 D87E4000 01>MOV DWORD PTR DS:[407ED8],1
00403CB7  -FF25 98604000    JMP DWORD PTR DS:[<&KERNEL32.GetOEMCP>]  ; kernel32.GetOEMCP
00403CBD   83F8 FD          CMP EAX,-3
00403CC0   75 10            JNZ SHORT app5win.00403CD2
00403CC2   C705 D87E4000 01>MOV DWORD PTR DS:[407ED8],1
00403CCC  -FF25 94604000    JMP DWORD PTR DS:[<&KERNEL32.GetACP>]    ; kernel32.GetACP
00403CD2   83F8 FC          CMP EAX,-4
00403CD5   75 0F            JNZ SHORT app5win.00403CE6
00403CD7   A1 147F4000      MOV EAX,DWORD PTR DS:[407F14]
00403CDC   C705 D87E4000 01>MOV DWORD PTR DS:[407ED8],1
00403CE6   C3               RETN
00403CE7   8B4424 04        MOV EAX,DWORD PTR SS:[ESP+4]
00403CEB   2D A4030000      SUB EAX,3A4                              ; Switch (cases 3A4..3B6)
00403CF0   74 22            JE SHORT app5win.00403D14
00403CF2   83E8 04          SUB EAX,4
00403CF5   74 17            JE SHORT app5win.00403D0E
00403CF7   83E8 0D          SUB EAX,0D
00403CFA   74 0C            JE SHORT app5win.00403D08
00403CFC   48               DEC EAX
00403CFD   74 03            JE SHORT app5win.00403D02
00403CFF   33C0             XOR EAX,EAX                              ; Default case of switch 00403CEB
00403D01   C3               RETN
00403D02   B8 04040000      MOV EAX,404                              ; Case 3B6 of switch 00403CEB
00403D07   C3               RETN
00403D08   B8 12040000      MOV EAX,412                              ; Case 3B5 of switch 00403CEB
00403D0D   C3               RETN
00403D0E   B8 04080000      MOV EAX,804                              ; Case 3A8 of switch 00403CEB
00403D13   C3               RETN
00403D14   B8 11040000      MOV EAX,411                              ; Case 3A4 of switch 00403CEB
00403D19   C3               RETN
00403D1A   57               PUSH EDI
00403D1B   6A 40            PUSH 40
00403D1D   59               POP ECX
00403D1E   33C0             XOR EAX,EAX
00403D20   BF A0814000      MOV EDI,app5win.004081A0
00403D25   F3:AB            REP STOS DWORD PTR ES:[EDI]
00403D27   AA               STOS BYTE PTR ES:[EDI]
00403D28   33C0             XOR EAX,EAX
00403D2A   BF 90804000      MOV EDI,app5win.00408090
00403D2F   A3 80804000      MOV DWORD PTR DS:[408080],EAX
00403D34   A3 9C804000      MOV DWORD PTR DS:[40809C],EAX
00403D39   A3 A4824000      MOV DWORD PTR DS:[4082A4],EAX
00403D3E   AB               STOS DWORD PTR ES:[EDI]
00403D3F   AB               STOS DWORD PTR ES:[EDI]
00403D40   AB               STOS DWORD PTR ES:[EDI]
00403D41   5F               POP EDI
00403D42   C3               RETN
00403D43   55               PUSH EBP
00403D44   8BEC             MOV EBP,ESP
00403D46   81EC 14050000    SUB ESP,514
00403D4C   8D45 EC          LEA EAX,DWORD PTR SS:[EBP-14]
00403D4F   56               PUSH ESI
00403D50   50               PUSH EAX
00403D51   FF35 80804000    PUSH DWORD PTR DS:[408080]
00403D57   FF15 90604000    CALL DWORD PTR DS:[<&KERNEL32.GetCPInfo>>; kernel32.GetCPInfo
00403D5D   83F8 01          CMP EAX,1
00403D60   0F85 16010000    JNZ app5win.00403E7C
00403D66   33C0             XOR EAX,EAX
00403D68   BE 00010000      MOV ESI,100
00403D6D   888405 ECFEFFFF  /MOV BYTE PTR SS:[EBP+EAX-114],AL
00403D74   40               |INC EAX
00403D75   3BC6             |CMP EAX,ESI
00403D77  ^72 F4            \JB SHORT app5win.00403D6D
00403D79   8A45 F2          MOV AL,BYTE PTR SS:[EBP-E]
00403D7C   C685 ECFEFFFF 20 MOV BYTE PTR SS:[EBP-114],20
00403D83   84C0             TEST AL,AL
00403D85   74 37            JE SHORT app5win.00403DBE
00403D87   53               PUSH EBX
00403D88   57               PUSH EDI
00403D89   8D55 F3          LEA EDX,DWORD PTR SS:[EBP-D]
00403D8C   0FB60A           /MOVZX ECX,BYTE PTR DS:[EDX]
00403D8F   0FB6C0           |MOVZX EAX,AL
00403D92   3BC1             |CMP EAX,ECX
00403D94   77 1D            |JA SHORT app5win.00403DB3
00403D96   2BC8             |SUB ECX,EAX
00403D98   8DBC05 ECFEFFFF  |LEA EDI,DWORD PTR SS:[EBP+EAX-114]
00403D9F   41               |INC ECX
00403DA0   B8 20202020      |MOV EAX,20202020
00403DA5   8BD9             |MOV EBX,ECX
00403DA7   C1E9 02          |SHR ECX,2
00403DAA   F3:AB            |REP STOS DWORD PTR ES:[EDI]
00403DAC   8BCB             |MOV ECX,EBX
00403DAE   83E1 03          |AND ECX,3
00403DB1   F3:AA            |REP STOS BYTE PTR ES:[EDI]
00403DB3   42               |INC EDX
00403DB4   42               |INC EDX
00403DB5   8A42 FF          |MOV AL,BYTE PTR DS:[EDX-1]
00403DB8   84C0             |TEST AL,AL
00403DBA  ^75 D0            \JNZ SHORT app5win.00403D8C
00403DBC   5F               POP EDI
00403DBD   5B               POP EBX
00403DBE   6A 00            PUSH 0
00403DC0   8D85 ECFAFFFF    LEA EAX,DWORD PTR SS:[EBP-514]
00403DC6   FF35 A4824000    PUSH DWORD PTR DS:[4082A4]
00403DCC   FF35 80804000    PUSH DWORD PTR DS:[408080]
00403DD2   50               PUSH EAX
00403DD3   8D85 ECFEFFFF    LEA EAX,DWORD PTR SS:[EBP-114]
00403DD9   56               PUSH ESI
00403DDA   50               PUSH EAX
00403DDB   6A 01            PUSH 1
00403DDD   E8 64120000      CALL app5win.00405046
00403DE2   6A 00            PUSH 0
00403DE4   8D85 ECFDFFFF    LEA EAX,DWORD PTR SS:[EBP-214]
00403DEA   FF35 80804000    PUSH DWORD PTR DS:[408080]
00403DF0   56               PUSH ESI
00403DF1   50               PUSH EAX
00403DF2   8D85 ECFEFFFF    LEA EAX,DWORD PTR SS:[EBP-114]
00403DF8   56               PUSH ESI
00403DF9   50               PUSH EAX
00403DFA   56               PUSH ESI
00403DFB   FF35 A4824000    PUSH DWORD PTR DS:[4082A4]
00403E01   E8 F10F0000      CALL app5win.00404DF7
00403E06   6A 00            PUSH 0
00403E08   8D85 ECFCFFFF    LEA EAX,DWORD PTR SS:[EBP-314]
00403E0E   FF35 80804000    PUSH DWORD PTR DS:[408080]
00403E14   56               PUSH ESI
00403E15   50               PUSH EAX
00403E16   8D85 ECFEFFFF    LEA EAX,DWORD PTR SS:[EBP-114]
00403E1C   56               PUSH ESI
00403E1D   50               PUSH EAX
00403E1E   68 00020000      PUSH 200
00403E23   FF35 A4824000    PUSH DWORD PTR DS:[4082A4]
00403E29   E8 C90F0000      CALL app5win.00404DF7
00403E2E   83C4 5C          ADD ESP,5C
00403E31   33C0             XOR EAX,EAX
00403E33   8D8D ECFAFFFF    LEA ECX,DWORD PTR SS:[EBP-514]
00403E39   66:8B11          /MOV DX,WORD PTR DS:[ECX]
00403E3C   F6C2 01          |TEST DL,1
00403E3F   74 16            |JE SHORT app5win.00403E57
00403E41   8088 A1814000 10 |OR BYTE PTR DS:[EAX+4081A1],10
00403E48   8A9405 ECFDFFFF  |MOV DL,BYTE PTR SS:[EBP+EAX-214]
00403E4F   8890 A0804000    |MOV BYTE PTR DS:[EAX+4080A0],DL
00403E55   EB 1C            |JMP SHORT app5win.00403E73
00403E57   F6C2 02          |TEST DL,2
00403E5A   74 10            |JE SHORT app5win.00403E6C
00403E5C   8088 A1814000 20 |OR BYTE PTR DS:[EAX+4081A1],20
00403E63   8A9405 ECFCFFFF  |MOV DL,BYTE PTR SS:[EBP+EAX-314]
00403E6A  ^EB E3            |JMP SHORT app5win.00403E4F
00403E6C   80A0 A0804000 00 |AND BYTE PTR DS:[EAX+4080A0],0
00403E73   40               |INC EAX
00403E74   41               |INC ECX
00403E75   41               |INC ECX
00403E76   3BC6             |CMP EAX,ESI
00403E78  ^72 BF            \JB SHORT app5win.00403E39
00403E7A   EB 49            JMP SHORT app5win.00403EC5
00403E7C   33C0             XOR EAX,EAX
00403E7E   BE 00010000      MOV ESI,100
00403E83   83F8 41          /CMP EAX,41
00403E86   72 19            |JB SHORT app5win.00403EA1
00403E88   83F8 5A          |CMP EAX,5A
00403E8B   77 14            |JA SHORT app5win.00403EA1
00403E8D   8088 A1814000 10 |OR BYTE PTR DS:[EAX+4081A1],10
00403E94   8AC8             |MOV CL,AL
00403E96   80C1 20          |ADD CL,20
00403E99   8888 A0804000    |MOV BYTE PTR DS:[EAX+4080A0],CL
00403E9F   EB 1F            |JMP SHORT app5win.00403EC0
00403EA1   83F8 61          |CMP EAX,61
00403EA4   72 13            |JB SHORT app5win.00403EB9
00403EA6   83F8 7A          |CMP EAX,7A
00403EA9   77 0E            |JA SHORT app5win.00403EB9
00403EAB   8088 A1814000 20 |OR BYTE PTR DS:[EAX+4081A1],20
00403EB2   8AC8             |MOV CL,AL
00403EB4   80E9 20          |SUB CL,20
00403EB7  ^EB E0            |JMP SHORT app5win.00403E99
00403EB9   80A0 A0804000 00 |AND BYTE PTR DS:[EAX+4080A0],0
00403EC0   40               |INC EAX
00403EC1   3BC6             |CMP EAX,ESI
00403EC3  ^72 BE            \JB SHORT app5win.00403E83
00403EC5   5E               POP ESI
00403EC6   C9               LEAVE
00403EC7   C3               RETN
00403EC8   833D C8834000 00 CMP DWORD PTR DS:[4083C8],0
00403ECF   75 12            JNZ SHORT app5win.00403EE3
00403ED1   6A FD            PUSH -3
00403ED3   E8 18FCFFFF      CALL app5win.00403AF0
00403ED8   59               POP ECX
00403ED9   C705 C8834000 01>MOV DWORD PTR DS:[4083C8],1
00403EE3   C3               RETN
00403EE4   68 40010000      PUSH 140
00403EE9   6A 00            PUSH 0
00403EEB   FF35 A8824000    PUSH DWORD PTR DS:[4082A8]
00403EF1   FF15 7C604000    CALL DWORD PTR DS:[<&KERNEL32.HeapAlloc>>; ntdll.RtlAllocateHeap
00403EF7   85C0             TEST EAX,EAX
00403EF9   A3 7C804000      MOV DWORD PTR DS:[40807C],EAX
00403EFE   75 01            JNZ SHORT app5win.00403F01
00403F00   C3               RETN
00403F01   8325 74804000 00 AND DWORD PTR DS:[408074],0
00403F08   8325 78804000 00 AND DWORD PTR DS:[408078],0
00403F0F   6A 01            PUSH 1
00403F11   A3 70804000      MOV DWORD PTR DS:[408070],EAX
00403F16   C705 68804000 10>MOV DWORD PTR DS:[408068],10
00403F20   58               POP EAX
00403F21   C3               RETN
00403F22   A1 78804000      MOV EAX,DWORD PTR DS:[408078]
00403F27   8D0C80           LEA ECX,DWORD PTR DS:[EAX+EAX*4]
00403F2A   A1 7C804000      MOV EAX,DWORD PTR DS:[40807C]
00403F2F   8D0C88           LEA ECX,DWORD PTR DS:[EAX+ECX*4]
00403F32   3BC1             /CMP EAX,ECX
00403F34   73 14            |JNB SHORT app5win.00403F4A
00403F36   8B5424 04        |MOV EDX,DWORD PTR SS:[ESP+4]
00403F3A   2B50 0C          |SUB EDX,DWORD PTR DS:[EAX+C]
00403F3D   81FA 00001000    |CMP EDX,100000
00403F43   72 07            |JB SHORT app5win.00403F4C
00403F45   83C0 14          |ADD EAX,14
00403F48  ^EB E8            \JMP SHORT app5win.00403F32
00403F4A   33C0             XOR EAX,EAX
00403F4C   C3               RETN
00403F4D   55               PUSH EBP
00403F4E   8BEC             MOV EBP,ESP
00403F50   83EC 14          SUB ESP,14
00403F53   8B55 0C          MOV EDX,DWORD PTR SS:[EBP+C]
00403F56   8B4D 08          MOV ECX,DWORD PTR SS:[EBP+8]
00403F59   53               PUSH EBX
00403F5A   56               PUSH ESI
00403F5B   8B41 10          MOV EAX,DWORD PTR DS:[ECX+10]
00403F5E   8BF2             MOV ESI,EDX
00403F60   2B71 0C          SUB ESI,DWORD PTR DS:[ECX+C]
00403F63   8B5A FC          MOV EBX,DWORD PTR DS:[EDX-4]
00403F66   83C2 FC          ADD EDX,-4
00403F69   57               PUSH EDI
00403F6A   C1EE 0F          SHR ESI,0F
00403F6D   8BCE             MOV ECX,ESI
00403F6F   8B7A FC          MOV EDI,DWORD PTR DS:[EDX-4]
00403F72   69C9 04020000    IMUL ECX,ECX,204
00403F78   4B               DEC EBX
00403F79   897D FC          MOV DWORD PTR SS:[EBP-4],EDI
00403F7C   8D8C01 44010000  LEA ECX,DWORD PTR DS:[ECX+EAX+144]
00403F83   895D F4          MOV DWORD PTR SS:[EBP-C],EBX
00403F86   894D F0          MOV DWORD PTR SS:[EBP-10],ECX
00403F89   8B0C13           MOV ECX,DWORD PTR DS:[EBX+EDX]
00403F8C   F6C1 01          TEST CL,1
00403F8F   894D F8          MOV DWORD PTR SS:[EBP-8],ECX
00403F92   75 7F            JNZ SHORT app5win.00404013
00403F94   C1F9 04          SAR ECX,4
00403F97   6A 3F            PUSH 3F
00403F99   49               DEC ECX
00403F9A   5F               POP EDI
00403F9B   894D 0C          MOV DWORD PTR SS:[EBP+C],ECX
00403F9E   3BCF             CMP ECX,EDI
00403FA0   76 03            JBE SHORT app5win.00403FA5
00403FA2   897D 0C          MOV DWORD PTR SS:[EBP+C],EDI
00403FA5   8B4C13 04        MOV ECX,DWORD PTR DS:[EBX+EDX+4]
00403FA9   3B4C13 08        CMP ECX,DWORD PTR DS:[EBX+EDX+8]
00403FAD   75 48            JNZ SHORT app5win.00403FF7
00403FAF   8B4D 0C          MOV ECX,DWORD PTR SS:[EBP+C]
00403FB2   83F9 20          CMP ECX,20
00403FB5   73 1C            JNB SHORT app5win.00403FD3
00403FB7   BF 00000080      MOV EDI,80000000
00403FBC   D3EF             SHR EDI,CL
00403FBE   8D4C01 04        LEA ECX,DWORD PTR DS:[ECX+EAX+4]
00403FC2   F7D7             NOT EDI
00403FC4   217CB0 44        AND DWORD PTR DS:[EAX+ESI*4+44],EDI
00403FC8   FE09             DEC BYTE PTR DS:[ECX]
00403FCA   75 2B            JNZ SHORT app5win.00403FF7
00403FCC   8B4D 08          MOV ECX,DWORD PTR SS:[EBP+8]
00403FCF   2139             AND DWORD PTR DS:[ECX],EDI
00403FD1   EB 24            JMP SHORT app5win.00403FF7
00403FD3   83C1 E0          ADD ECX,-20
00403FD6   BF 00000080      MOV EDI,80000000
00403FDB   D3EF             SHR EDI,CL
00403FDD   8B4D 0C          MOV ECX,DWORD PTR SS:[EBP+C]
00403FE0   8D4C01 04        LEA ECX,DWORD PTR DS:[ECX+EAX+4]
00403FE4   F7D7             NOT EDI
00403FE6   21BCB0 C4000000  AND DWORD PTR DS:[EAX+ESI*4+C4],EDI
00403FED   FE09             DEC BYTE PTR DS:[ECX]
00403FEF   75 06            JNZ SHORT app5win.00403FF7
00403FF1   8B4D 08          MOV ECX,DWORD PTR SS:[EBP+8]
00403FF4   2179 04          AND DWORD PTR DS:[ECX+4],EDI
00403FF7   8B4C13 08        MOV ECX,DWORD PTR DS:[EBX+EDX+8]
00403FFB   8B7C13 04        MOV EDI,DWORD PTR DS:[EBX+EDX+4]
00403FFF   8979 04          MOV DWORD PTR DS:[ECX+4],EDI
00404002   8B4C13 04        MOV ECX,DWORD PTR DS:[EBX+EDX+4]
00404006   8B7C13 08        MOV EDI,DWORD PTR DS:[EBX+EDX+8]
0040400A   035D F8          ADD EBX,DWORD PTR SS:[EBP-8]
0040400D   8979 08          MOV DWORD PTR DS:[ECX+8],EDI
00404010   895D F4          MOV DWORD PTR SS:[EBP-C],EBX
00404013   8BFB             MOV EDI,EBX
00404015   C1FF 04          SAR EDI,4
00404018   4F               DEC EDI
00404019   83FF 3F          CMP EDI,3F
0040401C   76 03            JBE SHORT app5win.00404021
0040401E   6A 3F            PUSH 3F
00404020   5F               POP EDI
00404021   8B4D FC          MOV ECX,DWORD PTR SS:[EBP-4]
00404024   83E1 01          AND ECX,1
00404027   894D EC          MOV DWORD PTR SS:[EBP-14],ECX
0040402A   0F85 A0000000    JNZ app5win.004040D0
00404030   2B55 FC          SUB EDX,DWORD PTR SS:[EBP-4]
00404033   8B4D FC          MOV ECX,DWORD PTR SS:[EBP-4]
00404036   C1F9 04          SAR ECX,4
00404039   6A 3F            PUSH 3F
0040403B   8955 F8          MOV DWORD PTR SS:[EBP-8],EDX
0040403E   49               DEC ECX
0040403F   5A               POP EDX
00404040   3BCA             CMP ECX,EDX
00404042   894D 0C          MOV DWORD PTR SS:[EBP+C],ECX
00404045   76 05            JBE SHORT app5win.0040404C
00404047   8955 0C          MOV DWORD PTR SS:[EBP+C],EDX
0040404A   8BCA             MOV ECX,EDX
0040404C   035D FC          ADD EBX,DWORD PTR SS:[EBP-4]
0040404F   8BFB             MOV EDI,EBX
00404051   895D F4          MOV DWORD PTR SS:[EBP-C],EBX
00404054   C1FF 04          SAR EDI,4
00404057   4F               DEC EDI
00404058   3BFA             CMP EDI,EDX
0040405A   76 02            JBE SHORT app5win.0040405E
0040405C   8BFA             MOV EDI,EDX
0040405E   3BCF             CMP ECX,EDI
00404060   74 6B            JE SHORT app5win.004040CD
00404062   8B4D F8          MOV ECX,DWORD PTR SS:[EBP-8]
00404065   8B51 04          MOV EDX,DWORD PTR DS:[ECX+4]
00404068   3B51 08          CMP EDX,DWORD PTR DS:[ECX+8]
0040406B   75 48            JNZ SHORT app5win.004040B5
0040406D   8B4D 0C          MOV ECX,DWORD PTR SS:[EBP+C]
00404070   83F9 20          CMP ECX,20
00404073   73 1C            JNB SHORT app5win.00404091
00404075   BA 00000080      MOV EDX,80000000
0040407A   D3EA             SHR EDX,CL
0040407C   8D4C01 04        LEA ECX,DWORD PTR DS:[ECX+EAX+4]
00404080   F7D2             NOT EDX
00404082   2154B0 44        AND DWORD PTR DS:[EAX+ESI*4+44],EDX
00404086   FE09             DEC BYTE PTR DS:[ECX]
00404088   75 2B            JNZ SHORT app5win.004040B5
0040408A   8B4D 08          MOV ECX,DWORD PTR SS:[EBP+8]
0040408D   2111             AND DWORD PTR DS:[ECX],EDX
0040408F   EB 24            JMP SHORT app5win.004040B5
00404091   83C1 E0          ADD ECX,-20
00404094   BA 00000080      MOV EDX,80000000
00404099   D3EA             SHR EDX,CL
0040409B   8B4D 0C          MOV ECX,DWORD PTR SS:[EBP+C]
0040409E   8D4C01 04        LEA ECX,DWORD PTR DS:[ECX+EAX+4]
004040A2   F7D2             NOT EDX
004040A4   2194B0 C4000000  AND DWORD PTR DS:[EAX+ESI*4+C4],EDX
004040AB   FE09             DEC BYTE PTR DS:[ECX]
004040AD   75 06            JNZ SHORT app5win.004040B5
004040AF   8B4D 08          MOV ECX,DWORD PTR SS:[EBP+8]
004040B2   2151 04          AND DWORD PTR DS:[ECX+4],EDX
004040B5   8B4D F8          MOV ECX,DWORD PTR SS:[EBP-8]
004040B8   8B51 08          MOV EDX,DWORD PTR DS:[ECX+8]
004040BB   8B49 04          MOV ECX,DWORD PTR DS:[ECX+4]
004040BE   894A 04          MOV DWORD PTR DS:[EDX+4],ECX
004040C1   8B4D F8          MOV ECX,DWORD PTR SS:[EBP-8]
004040C4   8B51 04          MOV EDX,DWORD PTR DS:[ECX+4]
004040C7   8B49 08          MOV ECX,DWORD PTR DS:[ECX+8]
004040CA   894A 08          MOV DWORD PTR DS:[EDX+8],ECX
004040CD   8B55 F8          MOV EDX,DWORD PTR SS:[EBP-8]
004040D0   837D EC 00       CMP DWORD PTR SS:[EBP-14],0
004040D4   75 09            JNZ SHORT app5win.004040DF
004040D6   397D 0C          CMP DWORD PTR SS:[EBP+C],EDI
004040D9   0F84 89000000    JE app5win.00404168
004040DF   8B4D F0          MOV ECX,DWORD PTR SS:[EBP-10]
004040E2   8D0CF9           LEA ECX,DWORD PTR DS:[ECX+EDI*8]
004040E5   8B49 04          MOV ECX,DWORD PTR DS:[ECX+4]
004040E8   894A 04          MOV DWORD PTR DS:[EDX+4],ECX
004040EB   8B4D F0          MOV ECX,DWORD PTR SS:[EBP-10]
004040EE   8D0CF9           LEA ECX,DWORD PTR DS:[ECX+EDI*8]
004040F1   894A 08          MOV DWORD PTR DS:[EDX+8],ECX
004040F4   8951 04          MOV DWORD PTR DS:[ECX+4],EDX
004040F7   8B4A 04          MOV ECX,DWORD PTR DS:[EDX+4]
004040FA   8951 08          MOV DWORD PTR DS:[ECX+8],EDX
004040FD   8B4A 04          MOV ECX,DWORD PTR DS:[EDX+4]
00404100   3B4A 08          CMP ECX,DWORD PTR DS:[EDX+8]
00404103   75 63            JNZ SHORT app5win.00404168
00404105   8A4C07 04        MOV CL,BYTE PTR DS:[EDI+EAX+4]
00404109   83FF 20          CMP EDI,20
0040410C   884D 0F          MOV BYTE PTR SS:[EBP+F],CL
0040410F   FEC1             INC CL
00404111   884C07 04        MOV BYTE PTR DS:[EDI+EAX+4],CL
00404115   73 25            JNB SHORT app5win.0040413C
00404117   807D 0F 00       CMP BYTE PTR SS:[EBP+F],0
0040411B   75 0E            JNZ SHORT app5win.0040412B
0040411D   BB 00000080      MOV EBX,80000000
00404122   8BCF             MOV ECX,EDI
00404124   D3EB             SHR EBX,CL
00404126   8B4D 08          MOV ECX,DWORD PTR SS:[EBP+8]
00404129   0919             OR DWORD PTR DS:[ECX],EBX
0040412B   BB 00000080      MOV EBX,80000000
00404130   8BCF             MOV ECX,EDI
00404132   D3EB             SHR EBX,CL
00404134   8D44B0 44        LEA EAX,DWORD PTR DS:[EAX+ESI*4+44]
00404138   0918             OR DWORD PTR DS:[EAX],EBX
0040413A   EB 29            JMP SHORT app5win.00404165
0040413C   807D 0F 00       CMP BYTE PTR SS:[EBP+F],0
00404140   75 10            JNZ SHORT app5win.00404152
00404142   8D4F E0          LEA ECX,DWORD PTR DS:[EDI-20]
00404145   BB 00000080      MOV EBX,80000000
0040414A   D3EB             SHR EBX,CL
0040414C   8B4D 08          MOV ECX,DWORD PTR SS:[EBP+8]
0040414F   0959 04          OR DWORD PTR DS:[ECX+4],EBX
00404152   8D4F E0          LEA ECX,DWORD PTR DS:[EDI-20]
00404155   BF 00000080      MOV EDI,80000000
0040415A   D3EF             SHR EDI,CL
0040415C   8D84B0 C4000000  LEA EAX,DWORD PTR DS:[EAX+ESI*4+C4]
00404163   0938             OR DWORD PTR DS:[EAX],EDI
00404165   8B5D F4          MOV EBX,DWORD PTR SS:[EBP-C]
00404168   8B45 F0          MOV EAX,DWORD PTR SS:[EBP-10]
0040416B   891A             MOV DWORD PTR DS:[EDX],EBX
0040416D   895C13 FC        MOV DWORD PTR DS:[EBX+EDX-4],EBX
00404171   FF08             DEC DWORD PTR DS:[EAX]
00404173   0F85 FA000000    JNZ app5win.00404273
00404179   A1 74804000      MOV EAX,DWORD PTR DS:[408074]
0040417E   85C0             TEST EAX,EAX
00404180   0F84 DF000000    JE app5win.00404265
00404186   8B0D 6C804000    MOV ECX,DWORD PTR DS:[40806C]
0040418C   8B3D 6C604000    MOV EDI,DWORD PTR DS:[<&KERNEL32.Virtual>; kernel32.VirtualFree
00404192   C1E1 0F          SHL ECX,0F
00404195   0348 0C          ADD ECX,DWORD PTR DS:[EAX+C]
00404198   BB 00800000      MOV EBX,8000
0040419D   68 00400000      PUSH 4000
004041A2   53               PUSH EBX
004041A3   51               PUSH ECX
004041A4   FFD7             CALL EDI
004041A6   8B0D 6C804000    MOV ECX,DWORD PTR DS:[40806C]
004041AC   A1 74804000      MOV EAX,DWORD PTR DS:[408074]
004041B1   BA 00000080      MOV EDX,80000000
004041B6   D3EA             SHR EDX,CL
004041B8   0950 08          OR DWORD PTR DS:[EAX+8],EDX
004041BB   A1 74804000      MOV EAX,DWORD PTR DS:[408074]
004041C0   8B0D 6C804000    MOV ECX,DWORD PTR DS:[40806C]
004041C6   8B40 10          MOV EAX,DWORD PTR DS:[EAX+10]
004041C9   83A488 C4000000 >AND DWORD PTR DS:[EAX+ECX*4+C4],0
004041D1   A1 74804000      MOV EAX,DWORD PTR DS:[408074]
004041D6   8B40 10          MOV EAX,DWORD PTR DS:[EAX+10]
004041D9   FE48 43          DEC BYTE PTR DS:[EAX+43]
004041DC   A1 74804000      MOV EAX,DWORD PTR DS:[408074]
004041E1   8B48 10          MOV ECX,DWORD PTR DS:[EAX+10]
004041E4   8079 43 00       CMP BYTE PTR DS:[ECX+43],0
004041E8   75 09            JNZ SHORT app5win.004041F3
004041EA   8360 04 FE       AND DWORD PTR DS:[EAX+4],FFFFFFFE
004041EE   A1 74804000      MOV EAX,DWORD PTR DS:[408074]
004041F3   8378 08 FF       CMP DWORD PTR DS:[EAX+8],-1
004041F7   75 6C            JNZ SHORT app5win.00404265
004041F9   53               PUSH EBX
004041FA   6A 00            PUSH 0
004041FC   FF70 0C          PUSH DWORD PTR DS:[EAX+C]
004041FF   FFD7             CALL EDI
00404201   A1 74804000      MOV EAX,DWORD PTR DS:[408074]
00404206   FF70 10          PUSH DWORD PTR DS:[EAX+10]
00404209   6A 00            PUSH 0
0040420B   FF35 A8824000    PUSH DWORD PTR DS:[4082A8]
00404211   FF15 70604000    CALL DWORD PTR DS:[<&KERNEL32.HeapFree>] ; kernel32.HeapFree
00404217   A1 78804000      MOV EAX,DWORD PTR DS:[408078]
0040421C   8B15 7C804000    MOV EDX,DWORD PTR DS:[40807C]
00404222   8D0480           LEA EAX,DWORD PTR DS:[EAX+EAX*4]
00404225   C1E0 02          SHL EAX,2
00404228   8BC8             MOV ECX,EAX
0040422A   A1 74804000      MOV EAX,DWORD PTR DS:[408074]
0040422F   2BC8             SUB ECX,EAX
00404231   8D4C11 EC        LEA ECX,DWORD PTR DS:[ECX+EDX-14]
00404235   51               PUSH ECX
00404236   8D48 14          LEA ECX,DWORD PTR DS:[EAX+14]
00404239   51               PUSH ECX
0040423A   50               PUSH EAX
0040423B   E8 500F0000      CALL app5win.00405190
00404240   8B45 08          MOV EAX,DWORD PTR SS:[EBP+8]
00404243   83C4 0C          ADD ESP,0C
00404246   FF0D 78804000    DEC DWORD PTR DS:[408078]
0040424C   3B05 74804000    CMP EAX,DWORD PTR DS:[408074]
00404252   76 03            JBE SHORT app5win.00404257
00404254   83E8 14          SUB EAX,14
00404257   8B0D 7C804000    MOV ECX,DWORD PTR DS:[40807C]
0040425D   890D 70804000    MOV DWORD PTR DS:[408070],ECX
00404263   EB 03            JMP SHORT app5win.00404268
00404265   8B45 08          MOV EAX,DWORD PTR SS:[EBP+8]
00404268   A3 74804000      MOV DWORD PTR DS:[408074],EAX
0040426D   8935 6C804000    MOV DWORD PTR DS:[40806C],ESI
00404273   5F               POP EDI
00404274   5E               POP ESI
00404275   5B               POP EBX
00404276   C9               LEAVE
00404277   C3               RETN
00404278   55               PUSH EBP
00404279   8BEC             MOV EBP,ESP
0040427B   83EC 14          SUB ESP,14
0040427E   A1 78804000      MOV EAX,DWORD PTR DS:[408078]
00404283   8B15 7C804000    MOV EDX,DWORD PTR DS:[40807C]
00404289   53               PUSH EBX
0040428A   56               PUSH ESI
0040428B   8D0480           LEA EAX,DWORD PTR DS:[EAX+EAX*4]
0040428E   57               PUSH EDI
0040428F   8D3C82           LEA EDI,DWORD PTR DS:[EDX+EAX*4]
00404292   8B45 08          MOV EAX,DWORD PTR SS:[EBP+8]
00404295   897D FC          MOV DWORD PTR SS:[EBP-4],EDI
00404298   8D48 17          LEA ECX,DWORD PTR DS:[EAX+17]
0040429B   83E1 F0          AND ECX,FFFFFFF0
0040429E   894D F0          MOV DWORD PTR SS:[EBP-10],ECX
004042A1   C1F9 04          SAR ECX,4
004042A4   49               DEC ECX
004042A5   83F9 20          CMP ECX,20
004042A8   7D 0E            JGE SHORT app5win.004042B8
004042AA   83CE FF          OR ESI,FFFFFFFF
004042AD   D3EE             SHR ESI,CL
004042AF   834D F8 FF       OR DWORD PTR SS:[EBP-8],FFFFFFFF
004042B3   8975 F4          MOV DWORD PTR SS:[EBP-C],ESI
004042B6   EB 10            JMP SHORT app5win.004042C8
004042B8   83C1 E0          ADD ECX,-20
004042BB   83C8 FF          OR EAX,FFFFFFFF
004042BE   33F6             XOR ESI,ESI
004042C0   D3E8             SHR EAX,CL
004042C2   8975 F4          MOV DWORD PTR SS:[EBP-C],ESI
004042C5   8945 F8          MOV DWORD PTR SS:[EBP-8],EAX
004042C8   A1 70804000      MOV EAX,DWORD PTR DS:[408070]
004042CD   8BD8             MOV EBX,EAX
004042CF   3BDF             CMP EBX,EDI
004042D1   895D 08          MOV DWORD PTR SS:[EBP+8],EBX
004042D4   73 19            JNB SHORT app5win.004042EF
004042D6   8B4B 04          /MOV ECX,DWORD PTR DS:[EBX+4]
004042D9   8B3B             |MOV EDI,DWORD PTR DS:[EBX]
004042DB   234D F8          |AND ECX,DWORD PTR SS:[EBP-8]
004042DE   23FE             |AND EDI,ESI
004042E0   0BCF             |OR ECX,EDI
004042E2   75 0B            |JNZ SHORT app5win.004042EF
004042E4   83C3 14          |ADD EBX,14
004042E7   3B5D FC          |CMP EBX,DWORD PTR SS:[EBP-4]
004042EA   895D 08          |MOV DWORD PTR SS:[EBP+8],EBX
004042ED  ^72 E7            \JB SHORT app5win.004042D6
004042EF   3B5D FC          CMP EBX,DWORD PTR SS:[EBP-4]
004042F2   75 79            JNZ SHORT app5win.0040436D
004042F4   8BDA             MOV EBX,EDX
004042F6   3BD8             /CMP EBX,EAX
004042F8   895D 08          |MOV DWORD PTR SS:[EBP+8],EBX
004042FB   73 15            |JNB SHORT app5win.00404312
004042FD   8B4B 04          |MOV ECX,DWORD PTR DS:[EBX+4]
00404300   8B3B             |MOV EDI,DWORD PTR DS:[EBX]
00404302   234D F8          |AND ECX,DWORD PTR SS:[EBP-8]
00404305   23FE             |AND EDI,ESI
00404307   0BCF             |OR ECX,EDI
00404309   75 05            |JNZ SHORT app5win.00404310
0040430B   83C3 14          |ADD EBX,14
0040430E  ^EB E6            \JMP SHORT app5win.004042F6
00404310   3BD8             CMP EBX,EAX
00404312   75 59            JNZ SHORT app5win.0040436D
00404314   3B5D FC          /CMP EBX,DWORD PTR SS:[EBP-4]
00404317   73 11            |JNB SHORT app5win.0040432A
00404319   837B 08 00       |CMP DWORD PTR DS:[EBX+8],0
0040431D   75 08            |JNZ SHORT app5win.00404327
0040431F   83C3 14          |ADD EBX,14
00404322   895D 08          |MOV DWORD PTR SS:[EBP+8],EBX
00404325  ^EB ED            \JMP SHORT app5win.00404314
00404327   3B5D FC          CMP EBX,DWORD PTR SS:[EBP-4]
0040432A   75 26            JNZ SHORT app5win.00404352
0040432C   8BDA             MOV EBX,EDX
0040432E   3BD8             /CMP EBX,EAX
00404330   895D 08          |MOV DWORD PTR SS:[EBP+8],EBX
00404333   73 0D            |JNB SHORT app5win.00404342
00404335   837B 08 00       |CMP DWORD PTR DS:[EBX+8],0
00404339   75 05            |JNZ SHORT app5win.00404340
0040433B   83C3 14          |ADD EBX,14
0040433E  ^EB EE            \JMP SHORT app5win.0040432E
00404340   3BD8             CMP EBX,EAX
00404342   75 0E            JNZ SHORT app5win.00404352
00404344   E8 38020000      CALL app5win.00404581
00404349   8BD8             MOV EBX,EAX
0040434B   85DB             TEST EBX,EBX
0040434D   895D 08          MOV DWORD PTR SS:[EBP+8],EBX
00404350   74 14            JE SHORT app5win.00404366
00404352   53               PUSH EBX
00404353   E8 DA020000      CALL app5win.00404632
00404358   59               POP ECX
00404359   8B4B 10          MOV ECX,DWORD PTR DS:[EBX+10]
0040435C   8901             MOV DWORD PTR DS:[ECX],EAX
0040435E   8B43 10          MOV EAX,DWORD PTR DS:[EBX+10]
00404361   8338 FF          CMP DWORD PTR DS:[EAX],-1
00404364   75 07            JNZ SHORT app5win.0040436D
00404366   33C0             XOR EAX,EAX
00404368   E9 0F020000      JMP app5win.0040457C
0040436D   891D 70804000    MOV DWORD PTR DS:[408070],EBX
00404373   8B43 10          MOV EAX,DWORD PTR DS:[EBX+10]
00404376   8B10             MOV EDX,DWORD PTR DS:[EAX]
00404378   83FA FF          CMP EDX,-1
0040437B   8955 FC          MOV DWORD PTR SS:[EBP-4],EDX
0040437E   74 14            JE SHORT app5win.00404394
00404380   8B8C90 C4000000  MOV ECX,DWORD PTR DS:[EAX+EDX*4+C4]
00404387   8B7C90 44        MOV EDI,DWORD PTR DS:[EAX+EDX*4+44]
0040438B   234D F8          AND ECX,DWORD PTR SS:[EBP-8]
0040438E   23FE             AND EDI,ESI
00404390   0BCF             OR ECX,EDI
00404392   75 37            JNZ SHORT app5win.004043CB
00404394   8B90 C4000000    MOV EDX,DWORD PTR DS:[EAX+C4]
0040439A   8B70 44          MOV ESI,DWORD PTR DS:[EAX+44]
0040439D   2355 F8          AND EDX,DWORD PTR SS:[EBP-8]
004043A0   2375 F4          AND ESI,DWORD PTR SS:[EBP-C]
004043A3   8365 FC 00       AND DWORD PTR SS:[EBP-4],0
004043A7   8D48 44          LEA ECX,DWORD PTR DS:[EAX+44]
004043AA   0BD6             OR EDX,ESI
004043AC   8B75 F4          MOV ESI,DWORD PTR SS:[EBP-C]
004043AF   75 17            JNZ SHORT app5win.004043C8
004043B1   8B91 84000000    /MOV EDX,DWORD PTR DS:[ECX+84]
004043B7   FF45 FC          |INC DWORD PTR SS:[EBP-4]
004043BA   2355 F8          |AND EDX,DWORD PTR SS:[EBP-8]
004043BD   83C1 04          |ADD ECX,4
004043C0   8BFE             |MOV EDI,ESI
004043C2   2339             |AND EDI,DWORD PTR DS:[ECX]
004043C4   0BD7             |OR EDX,EDI
004043C6  ^74 E9            \JE SHORT app5win.004043B1
004043C8   8B55 FC          MOV EDX,DWORD PTR SS:[EBP-4]
004043CB   8BCA             MOV ECX,EDX
004043CD   33FF             XOR EDI,EDI
004043CF   69C9 04020000    IMUL ECX,ECX,204
004043D5   8D8C01 44010000  LEA ECX,DWORD PTR DS:[ECX+EAX+144]
004043DC   894D F4          MOV DWORD PTR SS:[EBP-C],ECX
004043DF   8B4C90 44        MOV ECX,DWORD PTR DS:[EAX+EDX*4+44]
004043E3   23CE             AND ECX,ESI
004043E5   75 0D            JNZ SHORT app5win.004043F4
004043E7   8B8C90 C4000000  MOV ECX,DWORD PTR DS:[EAX+EDX*4+C4]
004043EE   6A 20            PUSH 20
004043F0   234D F8          AND ECX,DWORD PTR SS:[EBP-8]
004043F3   5F               POP EDI
004043F4   85C9             /TEST ECX,ECX
004043F6   7C 05            |JL SHORT app5win.004043FD
004043F8   D1E1             |SHL ECX,1
004043FA   47               |INC EDI
004043FB  ^EB F7            \JMP SHORT app5win.004043F4
004043FD   8B4D F4          MOV ECX,DWORD PTR SS:[EBP-C]
00404400   8B54F9 04        MOV EDX,DWORD PTR DS:[ECX+EDI*8+4]
00404404   8B0A             MOV ECX,DWORD PTR DS:[EDX]
00404406   2B4D F0          SUB ECX,DWORD PTR SS:[EBP-10]
00404409   8BF1             MOV ESI,ECX
0040440B   894D F8          MOV DWORD PTR SS:[EBP-8],ECX
0040440E   C1FE 04          SAR ESI,4
00404411   4E               DEC ESI
00404412   83FE 3F          CMP ESI,3F
00404415   7E 03            JLE SHORT app5win.0040441A
00404417   6A 3F            PUSH 3F
00404419   5E               POP ESI
0040441A   3BF7             CMP ESI,EDI
0040441C   0F84 0D010000    JE app5win.0040452F
00404422   8B4A 04          MOV ECX,DWORD PTR DS:[EDX+4]
00404425   3B4A 08          CMP ECX,DWORD PTR DS:[EDX+8]
00404428   75 61            JNZ SHORT app5win.0040448B
0040442A   83FF 20          CMP EDI,20
0040442D   7D 2B            JGE SHORT app5win.0040445A
0040442F   BB 00000080      MOV EBX,80000000
00404434   8BCF             MOV ECX,EDI
00404436   D3EB             SHR EBX,CL
00404438   8B4D FC          MOV ECX,DWORD PTR SS:[EBP-4]
0040443B   8D7C38 04        LEA EDI,DWORD PTR DS:[EAX+EDI+4]
0040443F   F7D3             NOT EBX
00404441   895D EC          MOV DWORD PTR SS:[EBP-14],EBX
00404444   235C88 44        AND EBX,DWORD PTR DS:[EAX+ECX*4+44]
00404448   895C88 44        MOV DWORD PTR DS:[EAX+ECX*4+44],EBX
0040444C   FE0F             DEC BYTE PTR DS:[EDI]
0040444E   75 38            JNZ SHORT app5win.00404488
00404450   8B5D 08          MOV EBX,DWORD PTR SS:[EBP+8]
00404453   8B4D EC          MOV ECX,DWORD PTR SS:[EBP-14]
00404456   210B             AND DWORD PTR DS:[EBX],ECX
00404458   EB 31            JMP SHORT app5win.0040448B
0040445A   8D4F E0          LEA ECX,DWORD PTR DS:[EDI-20]
0040445D   BB 00000080      MOV EBX,80000000
00404462   D3EB             SHR EBX,CL
00404464   8B4D FC          MOV ECX,DWORD PTR SS:[EBP-4]
00404467   8D7C38 04        LEA EDI,DWORD PTR DS:[EAX+EDI+4]
0040446B   8D8C88 C4000000  LEA ECX,DWORD PTR DS:[EAX+ECX*4+C4]
00404472   F7D3             NOT EBX
00404474   2119             AND DWORD PTR DS:[ECX],EBX
00404476   FE0F             DEC BYTE PTR DS:[EDI]
00404478   895D EC          MOV DWORD PTR SS:[EBP-14],EBX
0040447B   75 0B            JNZ SHORT app5win.00404488
0040447D   8B5D 08          MOV EBX,DWORD PTR SS:[EBP+8]
00404480   8B4D EC          MOV ECX,DWORD PTR SS:[EBP-14]
00404483   214B 04          AND DWORD PTR DS:[EBX+4],ECX
00404486   EB 03            JMP SHORT app5win.0040448B
00404488   8B5D 08          MOV EBX,DWORD PTR SS:[EBP+8]
0040448B   8B4A 08          MOV ECX,DWORD PTR DS:[EDX+8]
0040448E   8B7A 04          MOV EDI,DWORD PTR DS:[EDX+4]
00404491   837D F8 00       CMP DWORD PTR SS:[EBP-8],0
00404495   8979 04          MOV DWORD PTR DS:[ECX+4],EDI
00404498   8B4A 04          MOV ECX,DWORD PTR DS:[EDX+4]
0040449B   8B7A 08          MOV EDI,DWORD PTR DS:[EDX+8]
0040449E   8979 08          MOV DWORD PTR DS:[ECX+8],EDI
004044A1   0F84 94000000    JE app5win.0040453B
004044A7   8B4D F4          MOV ECX,DWORD PTR SS:[EBP-C]
004044AA   8B7CF1 04        MOV EDI,DWORD PTR DS:[ECX+ESI*8+4]
004044AE   8D0CF1           LEA ECX,DWORD PTR DS:[ECX+ESI*8]
004044B1   897A 04          MOV DWORD PTR DS:[EDX+4],EDI
004044B4   894A 08          MOV DWORD PTR DS:[EDX+8],ECX
004044B7   8951 04          MOV DWORD PTR DS:[ECX+4],EDX
004044BA   8B4A 04          MOV ECX,DWORD PTR DS:[EDX+4]
004044BD   8951 08          MOV DWORD PTR DS:[ECX+8],EDX
004044C0   8B4A 04          MOV ECX,DWORD PTR DS:[EDX+4]
004044C3   3B4A 08          CMP ECX,DWORD PTR DS:[EDX+8]
004044C6   75 64            JNZ SHORT app5win.0040452C
004044C8   8A4C06 04        MOV CL,BYTE PTR DS:[ESI+EAX+4]
004044CC   83FE 20          CMP ESI,20
004044CF   884D 0B          MOV BYTE PTR SS:[EBP+B],CL
004044D2   7D 29            JGE SHORT app5win.004044FD
004044D4   FEC1             INC CL
004044D6   807D 0B 00       CMP BYTE PTR SS:[EBP+B],0
004044DA   884C06 04        MOV BYTE PTR DS:[ESI+EAX+4],CL
004044DE   75 0B            JNZ SHORT app5win.004044EB
004044E0   BF 00000080      MOV EDI,80000000
004044E5   8BCE             MOV ECX,ESI
004044E7   D3EF             SHR EDI,CL
004044E9   093B             OR DWORD PTR DS:[EBX],EDI
004044EB   BF 00000080      MOV EDI,80000000
004044F0   8BCE             MOV ECX,ESI
004044F2   D3EF             SHR EDI,CL
004044F4   8B4D FC          MOV ECX,DWORD PTR SS:[EBP-4]
004044F7   097C88 44        OR DWORD PTR DS:[EAX+ECX*4+44],EDI
004044FB   EB 2F            JMP SHORT app5win.0040452C
004044FD   FEC1             INC CL
004044FF   807D 0B 00       CMP BYTE PTR SS:[EBP+B],0
00404503   884C06 04        MOV BYTE PTR DS:[ESI+EAX+4],CL
00404507   75 0D            JNZ SHORT app5win.00404516
00404509   8D4E E0          LEA ECX,DWORD PTR DS:[ESI-20]
0040450C   BF 00000080      MOV EDI,80000000
00404511   D3EF             SHR EDI,CL
00404513   097B 04          OR DWORD PTR DS:[EBX+4],EDI
00404516   8B4D FC          MOV ECX,DWORD PTR SS:[EBP-4]
00404519   8DBC88 C4000000  LEA EDI,DWORD PTR DS:[EAX+ECX*4+C4]
00404520   8D4E E0          LEA ECX,DWORD PTR DS:[ESI-20]
00404523   BE 00000080      MOV ESI,80000000
00404528   D3EE             SHR ESI,CL
0040452A   0937             OR DWORD PTR DS:[EDI],ESI
0040452C   8B4D F8          MOV ECX,DWORD PTR SS:[EBP-8]
0040452F   85C9             TEST ECX,ECX
00404531   74 0B            JE SHORT app5win.0040453E
00404533   890A             MOV DWORD PTR DS:[EDX],ECX
00404535   894C11 FC        MOV DWORD PTR DS:[ECX+EDX-4],ECX
00404539   EB 03            JMP SHORT app5win.0040453E
0040453B   8B4D F8          MOV ECX,DWORD PTR SS:[EBP-8]
0040453E   8B75 F0          MOV ESI,DWORD PTR SS:[EBP-10]
00404541   03D1             ADD EDX,ECX
00404543   8D4E 01          LEA ECX,DWORD PTR DS:[ESI+1]
00404546   890A             MOV DWORD PTR DS:[EDX],ECX
00404548   894C32 FC        MOV DWORD PTR DS:[EDX+ESI-4],ECX
0040454C   8B75 F4          MOV ESI,DWORD PTR SS:[EBP-C]
0040454F   8B0E             MOV ECX,DWORD PTR DS:[ESI]
00404551   85C9             TEST ECX,ECX
00404553   8D79 01          LEA EDI,DWORD PTR DS:[ECX+1]
00404556   893E             MOV DWORD PTR DS:[ESI],EDI
00404558   75 1A            JNZ SHORT app5win.00404574
0040455A   3B1D 74804000    CMP EBX,DWORD PTR DS:[408074]
00404560   75 12            JNZ SHORT app5win.00404574
00404562   8B4D FC          MOV ECX,DWORD PTR SS:[EBP-4]
00404565   3B0D 6C804000    CMP ECX,DWORD PTR DS:[40806C]
0040456B   75 07            JNZ SHORT app5win.00404574
0040456D   8325 74804000 00 AND DWORD PTR DS:[408074],0
00404574   8B4D FC          MOV ECX,DWORD PTR SS:[EBP-4]
00404577   8908             MOV DWORD PTR DS:[EAX],ECX
00404579   8D42 04          LEA EAX,DWORD PTR DS:[EDX+4]
0040457C   5F               POP EDI
0040457D   5E               POP ESI
0040457E   5B               POP EBX
0040457F   C9               LEAVE
00404580   C3               RETN
00404581   A1 78804000      MOV EAX,DWORD PTR DS:[408078]
00404586   8B0D 68804000    MOV ECX,DWORD PTR DS:[408068]
0040458C   56               PUSH ESI
0040458D   57               PUSH EDI
0040458E   33FF             XOR EDI,EDI
00404590   3BC1             CMP EAX,ECX
00404592   75 30            JNZ SHORT app5win.004045C4
00404594   8D4489 50        LEA EAX,DWORD PTR DS:[ECX+ECX*4+50]
00404598   C1E0 02          SHL EAX,2
0040459B   50               PUSH EAX
0040459C   FF35 7C804000    PUSH DWORD PTR DS:[40807C]
004045A2   57               PUSH EDI
004045A3   FF35 A8824000    PUSH DWORD PTR DS:[4082A8]
004045A9   FF15 A0604000    CALL DWORD PTR DS:[<&KERNEL32.HeapReAllo>; ntdll.RtlReAllocateHeap
004045AF   3BC7             CMP EAX,EDI
004045B1   74 61            JE SHORT app5win.00404614
004045B3   8305 68804000 10 ADD DWORD PTR DS:[408068],10
004045BA   A3 7C804000      MOV DWORD PTR DS:[40807C],EAX
004045BF   A1 78804000      MOV EAX,DWORD PTR DS:[408078]
004045C4   8B0D 7C804000    MOV ECX,DWORD PTR DS:[40807C]
004045CA   68 C4410000      PUSH 41C4
004045CF   6A 08            PUSH 8
004045D1   8D0480           LEA EAX,DWORD PTR DS:[EAX+EAX*4]
004045D4   FF35 A8824000    PUSH DWORD PTR DS:[4082A8]
004045DA   8D3481           LEA ESI,DWORD PTR DS:[ECX+EAX*4]
004045DD   FF15 7C604000    CALL DWORD PTR DS:[<&KERNEL32.HeapAlloc>>; ntdll.RtlAllocateHeap
004045E3   3BC7             CMP EAX,EDI
004045E5   8946 10          MOV DWORD PTR DS:[ESI+10],EAX
004045E8   74 2A            JE SHORT app5win.00404614
004045EA   6A 04            PUSH 4
004045EC   68 00200000      PUSH 2000
004045F1   68 00001000      PUSH 100000
004045F6   57               PUSH EDI
004045F7   FF15 9C604000    CALL DWORD PTR DS:[<&KERNEL32.VirtualAll>; kernel32.VirtualAlloc
004045FD   3BC7             CMP EAX,EDI
004045FF   8946 0C          MOV DWORD PTR DS:[ESI+C],EAX
00404602   75 14            JNZ SHORT app5win.00404618
00404604   FF76 10          PUSH DWORD PTR DS:[ESI+10]
00404607   57               PUSH EDI
00404608   FF35 A8824000    PUSH DWORD PTR DS:[4082A8]
0040460E   FF15 70604000    CALL DWORD PTR DS:[<&KERNEL32.HeapFree>] ; kernel32.HeapFree
00404614   33C0             XOR EAX,EAX
00404616   EB 17            JMP SHORT app5win.0040462F
00404618   834E 08 FF       OR DWORD PTR DS:[ESI+8],FFFFFFFF
0040461C   893E             MOV DWORD PTR DS:[ESI],EDI
0040461E   897E 04          MOV DWORD PTR DS:[ESI+4],EDI
00404621   FF05 78804000    INC DWORD PTR DS:[408078]
00404627   8B46 10          MOV EAX,DWORD PTR DS:[ESI+10]
0040462A   8308 FF          OR DWORD PTR DS:[EAX],FFFFFFFF
0040462D   8BC6             MOV EAX,ESI
0040462F   5F               POP EDI
00404630   5E               POP ESI
00404631   C3               RETN
00404632   55               PUSH EBP
00404633   8BEC             MOV EBP,ESP
00404635   51               PUSH ECX
00404636   8B4D 08          MOV ECX,DWORD PTR SS:[EBP+8]
00404639   53               PUSH EBX
0040463A   56               PUSH ESI
0040463B   57               PUSH EDI
0040463C   8B71 10          MOV ESI,DWORD PTR DS:[ECX+10]
0040463F   8B41 08          MOV EAX,DWORD PTR DS:[ECX+8]
00404642   33DB             XOR EBX,EBX
00404644   85C0             /TEST EAX,EAX
00404646   7C 05            |JL SHORT app5win.0040464D
00404648   D1E0             |SHL EAX,1
0040464A   43               |INC EBX
0040464B  ^EB F7            \JMP SHORT app5win.00404644
0040464D   8BC3             MOV EAX,EBX
0040464F   6A 3F            PUSH 3F
00404651   69C0 04020000    IMUL EAX,EAX,204
00404657   5A               POP EDX
00404658   8D8430 44010000  LEA EAX,DWORD PTR DS:[EAX+ESI+144]
0040465F   8945 FC          MOV DWORD PTR SS:[EBP-4],EAX
00404662   8940 08          /MOV DWORD PTR DS:[EAX+8],EAX
00404665   8940 04          |MOV DWORD PTR DS:[EAX+4],EAX
00404668   83C0 08          |ADD EAX,8
0040466B   4A               |DEC EDX
0040466C  ^75 F4            \JNZ SHORT app5win.00404662
0040466E   8BFB             MOV EDI,EBX
00404670   6A 04            PUSH 4
00404672   C1E7 0F          SHL EDI,0F
00404675   0379 0C          ADD EDI,DWORD PTR DS:[ECX+C]
00404678   68 00100000      PUSH 1000
0040467D   68 00800000      PUSH 8000
00404682   57               PUSH EDI
00404683   FF15 9C604000    CALL DWORD PTR DS:[<&KERNEL32.VirtualAll>; kernel32.VirtualAlloc
00404689   85C0             TEST EAX,EAX
0040468B   75 08            JNZ SHORT app5win.00404695
0040468D   83C8 FF          OR EAX,FFFFFFFF
00404690   E9 93000000      JMP app5win.00404728
00404695   8D97 00700000    LEA EDX,DWORD PTR DS:[EDI+7000]
0040469B   3BFA             CMP EDI,EDX
0040469D   77 3C            JA SHORT app5win.004046DB
0040469F   8D47 10          LEA EAX,DWORD PTR DS:[EDI+10]
004046A2   8348 F8 FF       /OR DWORD PTR DS:[EAX-8],FFFFFFFF
004046A6   8388 EC0F0000 FF |OR DWORD PTR DS:[EAX+FEC],FFFFFFFF
004046AD   8D88 FC0F0000    |LEA ECX,DWORD PTR DS:[EAX+FFC]
004046B3   C740 FC F00F0000 |MOV DWORD PTR DS:[EAX-4],0FF0
004046BA   8908             |MOV DWORD PTR DS:[EAX],ECX
004046BC   8D88 FCEFFFFF    |LEA ECX,DWORD PTR DS:[EAX-1004]
004046C2   8948 04          |MOV DWORD PTR DS:[EAX+4],ECX
004046C5   C780 E80F0000 F0>|MOV DWORD PTR DS:[EAX+FE8],0FF0
004046CF   05 00100000      |ADD EAX,1000
004046D4   8D48 F0          |LEA ECX,DWORD PTR DS:[EAX-10]
004046D7   3BCA             |CMP ECX,EDX
004046D9  ^76 C7            \JBE SHORT app5win.004046A2
004046DB   8B45 FC          MOV EAX,DWORD PTR SS:[EBP-4]
004046DE   8D4F 0C          LEA ECX,DWORD PTR DS:[EDI+C]
004046E1   05 F8010000      ADD EAX,1F8
004046E6   6A 01            PUSH 1
004046E8   5F               POP EDI
004046E9   8948 04          MOV DWORD PTR DS:[EAX+4],ECX
004046EC   8941 08          MOV DWORD PTR DS:[ECX+8],EAX
004046EF   8D4A 0C          LEA ECX,DWORD PTR DS:[EDX+C]
004046F2   8948 08          MOV DWORD PTR DS:[EAX+8],ECX
004046F5   8941 04          MOV DWORD PTR DS:[ECX+4],EAX
004046F8   83649E 44 00     AND DWORD PTR DS:[ESI+EBX*4+44],0
004046FD   89BC9E C4000000  MOV DWORD PTR DS:[ESI+EBX*4+C4],EDI
00404704   8A46 43          MOV AL,BYTE PTR DS:[ESI+43]
00404707   8AC8             MOV CL,AL
00404709   FEC1             INC CL
0040470B   84C0             TEST AL,AL
0040470D   8B45 08          MOV EAX,DWORD PTR SS:[EBP+8]
00404710   884E 43          MOV BYTE PTR DS:[ESI+43],CL
00404713   75 03            JNZ SHORT app5win.00404718
00404715   0978 04          OR DWORD PTR DS:[EAX+4],EDI
00404718   BA 00000080      MOV EDX,80000000
0040471D   8BCB             MOV ECX,EBX
0040471F   D3EA             SHR EDX,CL
00404721   F7D2             NOT EDX
00404723   2150 08          AND DWORD PTR DS:[EAX+8],EDX
00404726   8BC3             MOV EAX,EBX
00404728   5F               POP EDI
00404729   5E               POP ESI
0040472A   5B               POP EBX
0040472B   C9               LEAVE
0040472C   C3               RETN
0040472D   53               PUSH EBX
0040472E   33DB             XOR EBX,EBX
00404730   391D DC7E4000    CMP DWORD PTR DS:[407EDC],EBX
00404736   56               PUSH ESI
00404737   57               PUSH EDI
00404738   75 42            JNZ SHORT app5win.0040477C
0040473A   68 78644000      PUSH app5win.00406478                    ; ASCII "user32.dll"
0040473F   FF15 A8604000    CALL DWORD PTR DS:[<&KERNEL32.LoadLibrar>; kernel32.LoadLibraryA
00404745   8BF8             MOV EDI,EAX
00404747   3BFB             CMP EDI,EBX
00404749   74 67            JE SHORT app5win.004047B2
0040474B   8B35 A4604000    MOV ESI,DWORD PTR DS:[<&KERNEL32.GetProc>; apphelp.74D6FFF6
00404751   68 6C644000      PUSH app5win.0040646C                    ; ASCII "MessageBoxA"
00404756   57               PUSH EDI
00404757   FFD6             CALL ESI
00404759   85C0             TEST EAX,EAX
0040475B   A3 DC7E4000      MOV DWORD PTR DS:[407EDC],EAX
00404760   74 50            JE SHORT app5win.004047B2
00404762   68 5C644000      PUSH app5win.0040645C                    ; ASCII "GetActiveWindow"
00404767   57               PUSH EDI
00404768   FFD6             CALL ESI
0040476A   68 48644000      PUSH app5win.00406448                    ; ASCII "GetLastActivePopup"
0040476F   57               PUSH EDI
00404770   A3 E07E4000      MOV DWORD PTR DS:[407EE0],EAX
00404775   FFD6             CALL ESI
00404777   A3 E47E4000      MOV DWORD PTR DS:[407EE4],EAX
0040477C   A1 E07E4000      MOV EAX,DWORD PTR DS:[407EE0]
00404781   85C0             TEST EAX,EAX
00404783   74 16            JE SHORT app5win.0040479B
00404785   FFD0             CALL EAX
00404787   8BD8             MOV EBX,EAX
00404789   85DB             TEST EBX,EBX
0040478B   74 0E            JE SHORT app5win.0040479B
0040478D   A1 E47E4000      MOV EAX,DWORD PTR DS:[407EE4]
00404792   85C0             TEST EAX,EAX
00404794   74 05            JE SHORT app5win.0040479B
00404796   53               PUSH EBX
00404797   FFD0             CALL EAX
00404799   8BD8             MOV EBX,EAX
0040479B   FF7424 18        PUSH DWORD PTR SS:[ESP+18]
0040479F   FF7424 18        PUSH DWORD PTR SS:[ESP+18]
004047A3   FF7424 18        PUSH DWORD PTR SS:[ESP+18]
004047A7   53               PUSH EBX
004047A8   FF15 DC7E4000    CALL DWORD PTR DS:[407EDC]
004047AE   5F               POP EDI
004047AF   5E               POP ESI
004047B0   5B               POP EBX
004047B1   C3               RETN
004047B2   33C0             XOR EAX,EAX
004047B4  ^EB F8            JMP SHORT app5win.004047AE
004047B6   CC               INT3
004047B7   CC               INT3
004047B8   CC               INT3
004047B9   CC               INT3
004047BA   CC               INT3
004047BB   CC               INT3
004047BC   CC               INT3
004047BD   CC               INT3
004047BE   CC               INT3
004047BF   CC               INT3
004047C0   8B4C24 0C        MOV ECX,DWORD PTR SS:[ESP+C]
004047C4   57               PUSH EDI
004047C5   85C9             TEST ECX,ECX
004047C7   74 7A            JE SHORT app5win.00404843
004047C9   56               PUSH ESI
004047CA   53               PUSH EBX
004047CB   8BD9             MOV EBX,ECX
004047CD   8B7424 14        MOV ESI,DWORD PTR SS:[ESP+14]
004047D1   F7C6 03000000    TEST ESI,3
004047D7   8B7C24 10        MOV EDI,DWORD PTR SS:[ESP+10]
004047DB   75 07            JNZ SHORT app5win.004047E4
004047DD   C1E9 02          SHR ECX,2
004047E0   75 6F            JNZ SHORT app5win.00404851
004047E2   EB 21            JMP SHORT app5win.00404805
004047E4   8A06             /MOV AL,BYTE PTR DS:[ESI]
004047E6   46               |INC ESI
004047E7   8807             |MOV BYTE PTR DS:[EDI],AL
004047E9   47               |INC EDI
004047EA   49               |DEC ECX
004047EB   74 25            |JE SHORT app5win.00404812
004047ED   84C0             |TEST AL,AL
004047EF   74 29            |JE SHORT app5win.0040481A
004047F1   F7C6 03000000    |TEST ESI,3
004047F7  ^75 EB            \JNZ SHORT app5win.004047E4
004047F9   8BD9             MOV EBX,ECX
004047FB   C1E9 02          SHR ECX,2
004047FE   75 51            JNZ SHORT app5win.00404851
00404800   83E3 03          AND EBX,3
00404803   74 0D            JE SHORT app5win.00404812
00404805   8A06             /MOV AL,BYTE PTR DS:[ESI]
00404807   46               |INC ESI
00404808   8807             |MOV BYTE PTR DS:[EDI],AL
0040480A   47               |INC EDI
0040480B   84C0             |TEST AL,AL
0040480D   74 2F            |JE SHORT app5win.0040483E
0040480F   4B               |DEC EBX
00404810  ^75 F3            \JNZ SHORT app5win.00404805
00404812   8B4424 10        MOV EAX,DWORD PTR SS:[ESP+10]
00404816   5B               POP EBX
00404817   5E               POP ESI
00404818   5F               POP EDI
00404819   C3               RETN
0040481A   F7C7 03000000    TEST EDI,3
00404820   74 12            JE SHORT app5win.00404834
00404822   8807             /MOV BYTE PTR DS:[EDI],AL
00404824   47               |INC EDI
00404825   49               |DEC ECX
00404826   0F84 8A000000    |JE app5win.004048B6
0040482C   F7C7 03000000    |TEST EDI,3
00404832  ^75 EE            \JNZ SHORT app5win.00404822
00404834   8BD9             MOV EBX,ECX
00404836   C1E9 02          SHR ECX,2
00404839   75 6C            JNZ SHORT app5win.004048A7
0040483B   8807             MOV BYTE PTR DS:[EDI],AL
0040483D   47               INC EDI
0040483E   4B               DEC EBX
0040483F  ^75 FA            JNZ SHORT app5win.0040483B
00404841   5B               POP EBX
00404842   5E               POP ESI
00404843   8B4424 08        MOV EAX,DWORD PTR SS:[ESP+8]
00404847   5F               POP EDI
00404848   C3               RETN
00404849   8917             /MOV DWORD PTR DS:[EDI],EDX
0040484B   83C7 04          |ADD EDI,4
0040484E   49               |DEC ECX
0040484F  ^74 AF            |JE SHORT app5win.00404800
00404851   BA FFFEFE7E       MOV EDX,7EFEFEFF
00404856   8B06             |MOV EAX,DWORD PTR DS:[ESI]
00404858   03D0             |ADD EDX,EAX
0040485A   83F0 FF          |XOR EAX,FFFFFFFF
0040485D   33C2             |XOR EAX,EDX
0040485F   8B16             |MOV EDX,DWORD PTR DS:[ESI]
00404861   83C6 04          |ADD ESI,4
00404864   A9 00010181      |TEST EAX,81010100
00404869  ^74 DE            |JE SHORT app5win.00404849
0040486B   84D2             |TEST DL,DL
0040486D   74 2C            |JE SHORT app5win.0040489B
0040486F   84F6             |TEST DH,DH
00404871   74 1E            |JE SHORT app5win.00404891
00404873   F7C2 0000FF00    |TEST EDX,0FF0000
00404879   74 0C            |JE SHORT app5win.00404887
0040487B   F7C2 000000FF    |TEST EDX,FF000000
00404881  ^75 C6            \JNZ SHORT app5win.00404849
00404883   8917             MOV DWORD PTR DS:[EDI],EDX
00404885   EB 18            JMP SHORT app5win.0040489F
00404887   81E2 FFFF0000    AND EDX,0FFFF
0040488D   8917             MOV DWORD PTR DS:[EDI],EDX
0040488F   EB 0E            JMP SHORT app5win.0040489F
00404891   81E2 FF000000    AND EDX,0FF
00404897   8917             MOV DWORD PTR DS:[EDI],EDX
00404899   EB 04            JMP SHORT app5win.0040489F
0040489B   33D2             XOR EDX,EDX
0040489D   8917             MOV DWORD PTR DS:[EDI],EDX
0040489F   83C7 04          ADD EDI,4
004048A2   33C0             XOR EAX,EAX
004048A4   49               DEC ECX
004048A5   74 0A            JE SHORT app5win.004048B1
004048A7   33C0             XOR EAX,EAX
004048A9   8907             /MOV DWORD PTR DS:[EDI],EAX
004048AB   83C7 04          |ADD EDI,4
004048AE   49               |DEC ECX
004048AF  ^75 F8            \JNZ SHORT app5win.004048A9
004048B1   83E3 03          AND EBX,3
004048B4  ^75 85            JNZ SHORT app5win.0040483B
004048B6   8B4424 10        MOV EAX,DWORD PTR SS:[ESP+10]
004048BA   5B               POP EBX
004048BB   5E               POP ESI
004048BC   5F               POP EDI
004048BD   C3               RETN
004048BE   A1 E87E4000      MOV EAX,DWORD PTR DS:[407EE8]
004048C3   85C0             TEST EAX,EAX
004048C5   74 0F            JE SHORT app5win.004048D6
004048C7   FF7424 04        PUSH DWORD PTR SS:[ESP+4]
004048CB   FFD0             CALL EAX
004048CD   85C0             TEST EAX,EAX
004048CF   59               POP ECX
004048D0   74 04            JE SHORT app5win.004048D6
004048D2   6A 01            PUSH 1
004048D4   58               POP EAX
004048D5   C3               RETN
004048D6   33C0             XOR EAX,EAX
004048D8   C3               RETN
004048D9   56               PUSH ESI
004048DA   8B7424 08        MOV ESI,DWORD PTR SS:[ESP+8]
004048DE   57               PUSH EDI
004048DF   83CF FF          OR EDI,FFFFFFFF
004048E2   F646 0C 40       TEST BYTE PTR DS:[ESI+C],40
004048E6   74 06            JE SHORT app5win.004048EE
004048E8   8366 0C 00       AND DWORD PTR DS:[ESI+C],0
004048EC   EB 17            JMP SHORT app5win.00404905
004048EE   56               PUSH ESI
004048EF   E8 21CBFFFF      CALL app5win.00401415
004048F4   56               PUSH ESI
004048F5   E8 10000000      CALL app5win.0040490A
004048FA   56               PUSH ESI
004048FB   8BF8             MOV EDI,EAX
004048FD   E8 65CBFFFF      CALL app5win.00401467
00404902   83C4 0C          ADD ESP,0C
00404905   8BC7             MOV EAX,EDI
00404907   5F               POP EDI
00404908   5E               POP ESI
00404909   C3               RETN
0040490A   56               PUSH ESI
0040490B   8B7424 08        MOV ESI,DWORD PTR SS:[ESP+8]
0040490F   57               PUSH EDI
00404910   83CF FF          OR EDI,FFFFFFFF
00404913   F646 0C 83       TEST BYTE PTR DS:[ESI+C],83
00404917   74 34            JE SHORT app5win.0040494D
00404919   56               PUSH ESI
0040491A   E8 6DE5FFFF      CALL app5win.00402E8C
0040491F   56               PUSH ESI
00404920   8BF8             MOV EDI,EAX
00404922   E8 7E0C0000      CALL app5win.004055A5
00404927   FF76 10          PUSH DWORD PTR DS:[ESI+10]
0040492A   E8 960B0000      CALL app5win.004054C5
0040492F   83C4 0C          ADD ESP,0C
00404932   85C0             TEST EAX,EAX
00404934   7D 05            JGE SHORT app5win.0040493B
00404936   83CF FF          OR EDI,FFFFFFFF
00404939   EB 12            JMP SHORT app5win.0040494D
0040493B   8B46 1C          MOV EAX,DWORD PTR DS:[ESI+1C]
0040493E   85C0             TEST EAX,EAX
00404940   74 0B            JE SHORT app5win.0040494D
00404942   50               PUSH EAX
00404943   E8 6DF0FFFF      CALL app5win.004039B5
00404948   8366 1C 00       AND DWORD PTR DS:[ESI+1C],0
0040494C   59               POP ECX
0040494D   8366 0C 00       AND DWORD PTR DS:[ESI+C],0
00404951   8BC7             MOV EAX,EDI
00404953   5F               POP EDI
00404954   5E               POP ESI
00404955   C3               RETN
00404956   53               PUSH EBX
00404957   8B5C24 08        MOV EBX,DWORD PTR SS:[ESP+8]
0040495B   3B1D C0834000    CMP EBX,DWORD PTR DS:[4083C0]
00404961   56               PUSH ESI
00404962   57               PUSH EDI
00404963   73 72            JNB SHORT app5win.004049D7
00404965   8BC3             MOV EAX,EBX
00404967   C1F8 05          SAR EAX,5
0040496A   8D3C85 C0824000  LEA EDI,DWORD PTR DS:[EAX*4+4082C0]
00404971   8BC3             MOV EAX,EBX
00404973   83E0 1F          AND EAX,1F
00404976   8D34C0           LEA ESI,DWORD PTR DS:[EAX+EAX*8]
00404979   8B07             MOV EAX,DWORD PTR DS:[EDI]
0040497B   C1E6 02          SHL ESI,2
0040497E   F64430 04 01     TEST BYTE PTR DS:[EAX+ESI+4],1
00404983   74 52            JE SHORT app5win.004049D7
00404985   53               PUSH EBX
00404986   E8 EB030000      CALL app5win.00404D76
0040498B   8B07             MOV EAX,DWORD PTR DS:[EDI]
0040498D   59               POP ECX
0040498E   F64430 04 01     TEST BYTE PTR DS:[EAX+ESI+4],1
00404993   74 29            JE SHORT app5win.004049BE
00404995   53               PUSH EBX
00404996   E8 99030000      CALL app5win.00404D34
0040499B   59               POP ECX
0040499C   50               PUSH EAX
0040499D   FF15 AC604000    CALL DWORD PTR DS:[<&KERNEL32.FlushFileB>; kernel32.FlushFileBuffers
004049A3   85C0             TEST EAX,EAX
004049A5   75 0A            JNZ SHORT app5win.004049B1
004049A7   FF15 60604000    CALL DWORD PTR DS:[<&KERNEL32.GetLastErr>; kernel32.GetLastError
004049AD   8BF0             MOV ESI,EAX
004049AF   EB 02            JMP SHORT app5win.004049B3
004049B1   33F6             XOR ESI,ESI
004049B3   85F6             TEST ESI,ESI
004049B5   74 15            JE SHORT app5win.004049CC
004049B7   E8 B2000000      CALL app5win.00404A6E
004049BC   8930             MOV DWORD PTR DS:[EAX],ESI
004049BE   E8 A2000000      CALL app5win.00404A65
004049C3   C700 09000000    MOV DWORD PTR DS:[EAX],9
004049C9   83CE FF          OR ESI,FFFFFFFF
004049CC   53               PUSH EBX
004049CD   E8 03040000      CALL app5win.00404DD5
004049D2   59               POP ECX
004049D3   8BC6             MOV EAX,ESI
004049D5   EB 0E            JMP SHORT app5win.004049E5
004049D7   E8 89000000      CALL app5win.00404A65
004049DC   C700 09000000    MOV DWORD PTR DS:[EAX],9
004049E2   83C8 FF          OR EAX,FFFFFFFF
004049E5   5F               POP EDI
004049E6   5E               POP ESI
004049E7   5B               POP EBX
004049E8   C3               RETN
004049E9   6A 02            PUSH 2
004049EB   E8 20C9FFFF      CALL app5win.00401310
004049F0   59               POP ECX
004049F1   C3               RETN
004049F2   56               PUSH ESI
004049F3   E8 76000000      CALL app5win.00404A6E
004049F8   8B4C24 08        MOV ECX,DWORD PTR SS:[ESP+8]
004049FC   33F6             XOR ESI,ESI
004049FE   8908             MOV DWORD PTR DS:[EAX],ECX
00404A00   B8 60794000      MOV EAX,app5win.00407960
00404A05   3B08             /CMP ECX,DWORD PTR DS:[EAX]
00404A07   74 22            |JE SHORT app5win.00404A2B
00404A09   83C0 08          |ADD EAX,8
00404A0C   46               |INC ESI
00404A0D   3D C87A4000      |CMP EAX,app5win.00407AC8
00404A12  ^7C F1            \JL SHORT app5win.00404A05
00404A14   83F9 13          CMP ECX,13
00404A17   72 22            JB SHORT app5win.00404A3B
00404A19   83F9 24          CMP ECX,24
00404A1C   77 1D            JA SHORT app5win.00404A3B
00404A1E   E8 42000000      CALL app5win.00404A65
00404A23   C700 0D000000    MOV DWORD PTR DS:[EAX],0D
00404A29   5E               POP ESI
00404A2A   C3               RETN
00404A2B   E8 35000000      CALL app5win.00404A65
00404A30   8B0CF5 64794000  MOV ECX,DWORD PTR DS:[ESI*8+407964]
00404A37   5E               POP ESI
00404A38   8908             MOV DWORD PTR DS:[EAX],ECX
00404A3A   C3               RETN
00404A3B   81F9 BC000000    CMP ECX,0BC
00404A41   72 15            JB SHORT app5win.00404A58
00404A43   81F9 CA000000    CMP ECX,0CA
00404A49   77 0D            JA SHORT app5win.00404A58
00404A4B   E8 15000000      CALL app5win.00404A65
00404A50   C700 08000000    MOV DWORD PTR DS:[EAX],8
00404A56   5E               POP ESI
00404A57   C3               RETN
00404A58   E8 08000000      CALL app5win.00404A65
00404A5D   C700 16000000    MOV DWORD PTR DS:[EAX],16
00404A63   5E               POP ESI
00404A64   C3               RETN
00404A65   E8 E4DEFFFF      CALL app5win.0040294E
00404A6A   83C0 08          ADD EAX,8
00404A6D   C3               RETN
00404A6E   E8 DBDEFFFF      CALL app5win.0040294E
00404A73   83C0 0C          ADD EAX,0C
00404A76   C3               RETN
00404A77   56               PUSH ESI
00404A78   8B7424 08        MOV ESI,DWORD PTR SS:[ESP+8]
00404A7C   3B35 C0834000    CMP ESI,DWORD PTR DS:[4083C0]
00404A82   73 40            JNB SHORT app5win.00404AC4
00404A84   8BCE             MOV ECX,ESI
00404A86   8BC6             MOV EAX,ESI
00404A88   C1F9 05          SAR ECX,5
00404A8B   83E0 1F          AND EAX,1F
00404A8E   8B0C8D C0824000  MOV ECX,DWORD PTR DS:[ECX*4+4082C0]
00404A95   8D04C0           LEA EAX,DWORD PTR DS:[EAX+EAX*8]
00404A98   F64481 04 01     TEST BYTE PTR DS:[ECX+EAX*4+4],1
00404A9D   74 25            JE SHORT app5win.00404AC4
00404A9F   57               PUSH EDI
00404AA0   56               PUSH ESI
00404AA1   E8 D0020000      CALL app5win.00404D76
00404AA6   FF7424 18        PUSH DWORD PTR SS:[ESP+18]
00404AAA   FF7424 18        PUSH DWORD PTR SS:[ESP+18]
00404AAE   56               PUSH ESI
00404AAF   E8 28000000      CALL app5win.00404ADC
00404AB4   56               PUSH ESI
00404AB5   8BF8             MOV EDI,EAX
00404AB7   E8 19030000      CALL app5win.00404DD5
00404ABC   83C4 14          ADD ESP,14
00404ABF   8BC7             MOV EAX,EDI
00404AC1   5F               POP EDI
00404AC2   5E               POP ESI
00404AC3   C3               RETN
00404AC4   E8 9CFFFFFF      CALL app5win.00404A65
00404AC9   C700 09000000    MOV DWORD PTR DS:[EAX],9
00404ACF   E8 9AFFFFFF      CALL app5win.00404A6E
00404AD4   8320 00          AND DWORD PTR DS:[EAX],0
00404AD7   83C8 FF          OR EAX,FFFFFFFF
00404ADA   5E               POP ESI
00404ADB   C3               RETN
00404ADC   55               PUSH EBP
00404ADD   8BEC             MOV EBP,ESP
00404ADF   83EC 0C          SUB ESP,0C
00404AE2   8365 F8 00       AND DWORD PTR SS:[EBP-8],0
00404AE6   837D 10 00       CMP DWORD PTR SS:[EBP+10],0
00404AEA   53               PUSH EBX
00404AEB   8B5D 0C          MOV EBX,DWORD PTR SS:[EBP+C]
00404AEE   56               PUSH ESI
00404AEF   57               PUSH EDI
00404AF0   8BD3             MOV EDX,EBX
00404AF2   0F84 B6010000    JE app5win.00404CAE
00404AF8   8B45 08          MOV EAX,DWORD PTR SS:[EBP+8]
00404AFB   8BC8             MOV ECX,EAX
00404AFD   83E0 1F          AND EAX,1F
00404B00   C1F9 05          SAR ECX,5
00404B03   8D34C0           LEA ESI,DWORD PTR DS:[EAX+EAX*8]
00404B06   8B048D C0824000  MOV EAX,DWORD PTR DS:[ECX*4+4082C0]
00404B0D   8D3C8D C0824000  LEA EDI,DWORD PTR DS:[ECX*4+4082C0]
00404B14   C1E6 02          SHL ESI,2
00404B17   03C6             ADD EAX,ESI
00404B19   8A48 04          MOV CL,BYTE PTR DS:[EAX+4]
00404B1C   F6C1 02          TEST CL,2
00404B1F   0F85 89010000    JNZ app5win.00404CAE
00404B25   F6C1 48          TEST CL,48
00404B28   74 1D            JE SHORT app5win.00404B47
00404B2A   8A40 05          MOV AL,BYTE PTR DS:[EAX+5]
00404B2D   3C 0A            CMP AL,0A
00404B2F   74 16            JE SHORT app5win.00404B47
00404B31   FF4D 10          DEC DWORD PTR SS:[EBP+10]
00404B34   8803             MOV BYTE PTR DS:[EBX],AL
00404B36   8B07             MOV EAX,DWORD PTR DS:[EDI]
00404B38   8D53 01          LEA EDX,DWORD PTR DS:[EBX+1]
00404B3B   C745 F8 01000000 MOV DWORD PTR SS:[EBP-8],1
00404B42   C64430 05 0A     MOV BYTE PTR DS:[EAX+ESI+5],0A
00404B47   8D45 F4          LEA EAX,DWORD PTR SS:[EBP-C]
00404B4A   6A 00            PUSH 0
00404B4C   50               PUSH EAX
00404B4D   8B07             MOV EAX,DWORD PTR DS:[EDI]
00404B4F   FF75 10          PUSH DWORD PTR SS:[EBP+10]
00404B52   52               PUSH EDX
00404B53   FF3430           PUSH DWORD PTR DS:[EAX+ESI]
00404B56   FF15 B0604000    CALL DWORD PTR DS:[<&KERNEL32.ReadFile>] ; kernel32.ReadFile
00404B5C   85C0             TEST EAX,EAX
00404B5E   75 39            JNZ SHORT app5win.00404B99
00404B60   FF15 60604000    CALL DWORD PTR DS:[<&KERNEL32.GetLastErr>; kernel32.GetLastError
00404B66   6A 05            PUSH 5
00404B68   5E               POP ESI
00404B69   3BC6             CMP EAX,ESI
00404B6B   75 14            JNZ SHORT app5win.00404B81
00404B6D   E8 F3FEFFFF      CALL app5win.00404A65
00404B72   C700 09000000    MOV DWORD PTR DS:[EAX],9
00404B78   E8 F1FEFFFF      CALL app5win.00404A6E
00404B7D   8930             MOV DWORD PTR DS:[EAX],ESI
00404B7F   EB 10            JMP SHORT app5win.00404B91
00404B81   83F8 6D          CMP EAX,6D
00404B84   0F84 24010000    JE app5win.00404CAE
00404B8A   50               PUSH EAX
00404B8B   E8 62FEFFFF      CALL app5win.004049F2
00404B90   59               POP ECX
00404B91   83C8 FF          OR EAX,FFFFFFFF
00404B94   E9 17010000      JMP app5win.00404CB0
00404B99   8B07             MOV EAX,DWORD PTR DS:[EDI]
00404B9B   8B55 F4          MOV EDX,DWORD PTR SS:[EBP-C]
00404B9E   0155 F8          ADD DWORD PTR SS:[EBP-8],EDX
00404BA1   8D4C30 04        LEA ECX,DWORD PTR DS:[EAX+ESI+4]
00404BA5   8A4430 04        MOV AL,BYTE PTR DS:[EAX+ESI+4]
00404BA9   A8 80            TEST AL,80
00404BAB   0F84 F8000000    JE app5win.00404CA9
00404BB1   85D2             TEST EDX,EDX
00404BB3   74 09            JE SHORT app5win.00404BBE
00404BB5   803B 0A          CMP BYTE PTR DS:[EBX],0A
00404BB8   75 04            JNZ SHORT app5win.00404BBE
00404BBA   0C 04            OR AL,4
00404BBC   EB 02            JMP SHORT app5win.00404BC0
00404BBE   24 FB            AND AL,0FB
00404BC0   8801             MOV BYTE PTR DS:[ECX],AL
00404BC2   8B45 0C          MOV EAX,DWORD PTR SS:[EBP+C]
00404BC5   8B4D F8          MOV ECX,DWORD PTR SS:[EBP-8]
00404BC8   8945 10          MOV DWORD PTR SS:[EBP+10],EAX
00404BCB   03C8             ADD ECX,EAX
00404BCD   3BC1             CMP EAX,ECX
00404BCF   894D F8          MOV DWORD PTR SS:[EBP-8],ECX
00404BD2   0F83 CB000000    JNB app5win.00404CA3
00404BD8   8B45 10          /MOV EAX,DWORD PTR SS:[EBP+10]
00404BDB   8A00             |MOV AL,BYTE PTR DS:[EAX]
00404BDD   3C 1A            |CMP AL,1A
00404BDF   0F84 AE000000    |JE app5win.00404C93
00404BE5   3C 0D            |CMP AL,0D
00404BE7   74 0B            |JE SHORT app5win.00404BF4
00404BE9   8803             |MOV BYTE PTR DS:[EBX],AL
00404BEB   43               |INC EBX
00404BEC   FF45 10          |INC DWORD PTR SS:[EBP+10]
00404BEF   E9 91000000      |JMP app5win.00404C85
00404BF4   49               |DEC ECX
00404BF5   394D 10          |CMP DWORD PTR SS:[EBP+10],ECX
00404BF8   73 18            |JNB SHORT app5win.00404C12
00404BFA   8B45 10          |MOV EAX,DWORD PTR SS:[EBP+10]
00404BFD   40               |INC EAX
00404BFE   8038 0A          |CMP BYTE PTR DS:[EAX],0A
00404C01   75 06            |JNZ SHORT app5win.00404C09
00404C03   8345 10 02       |ADD DWORD PTR SS:[EBP+10],2
00404C07   EB 5E            |JMP SHORT app5win.00404C67
00404C09   C603 0D          |MOV BYTE PTR DS:[EBX],0D
00404C0C   43               |INC EBX
00404C0D   8945 10          |MOV DWORD PTR SS:[EBP+10],EAX
00404C10   EB 73            |JMP SHORT app5win.00404C85
00404C12   8D45 F4          |LEA EAX,DWORD PTR SS:[EBP-C]
00404C15   6A 00            |PUSH 0
00404C17   50               |PUSH EAX
00404C18   FF45 10          |INC DWORD PTR SS:[EBP+10]
00404C1B   8D45 FF          |LEA EAX,DWORD PTR SS:[EBP-1]
00404C1E   6A 01            |PUSH 1
00404C20   50               |PUSH EAX
00404C21   8B07             |MOV EAX,DWORD PTR DS:[EDI]
00404C23   FF3430           |PUSH DWORD PTR DS:[EAX+ESI]
00404C26   FF15 B0604000    |CALL DWORD PTR DS:[<&KERNEL32.ReadFile>>; kernel32.ReadFile
00404C2C   85C0             |TEST EAX,EAX
00404C2E   75 0A            |JNZ SHORT app5win.00404C3A
00404C30   FF15 60604000    |CALL DWORD PTR DS:[<&KERNEL32.GetLastEr>; kernel32.GetLastError
00404C36   85C0             |TEST EAX,EAX
00404C38   75 47            |JNZ SHORT app5win.00404C81
00404C3A   837D F4 00       |CMP DWORD PTR SS:[EBP-C],0
00404C3E   74 41            |JE SHORT app5win.00404C81
00404C40   8B07             |MOV EAX,DWORD PTR DS:[EDI]
00404C42   F64430 04 48     |TEST BYTE PTR DS:[EAX+ESI+4],48
00404C47   74 13            |JE SHORT app5win.00404C5C
00404C49   8A45 FF          |MOV AL,BYTE PTR SS:[EBP-1]
00404C4C   3C 0A            |CMP AL,0A
00404C4E   74 17            |JE SHORT app5win.00404C67
00404C50   C603 0D          |MOV BYTE PTR DS:[EBX],0D
00404C53   8B0F             |MOV ECX,DWORD PTR DS:[EDI]
00404C55   43               |INC EBX
00404C56   884431 05        |MOV BYTE PTR DS:[ECX+ESI+5],AL
00404C5A   EB 29            |JMP SHORT app5win.00404C85
00404C5C   3B5D 0C          |CMP EBX,DWORD PTR SS:[EBP+C]
00404C5F   75 0B            |JNZ SHORT app5win.00404C6C
00404C61   807D FF 0A       |CMP BYTE PTR SS:[EBP-1],0A
00404C65   75 05            |JNZ SHORT app5win.00404C6C
00404C67   C603 0A          |MOV BYTE PTR DS:[EBX],0A
00404C6A   EB 18            |JMP SHORT app5win.00404C84
00404C6C   6A 01            |PUSH 1
00404C6E   6A FF            |PUSH -1
00404C70   FF75 08          |PUSH DWORD PTR SS:[EBP+8]
00404C73   E8 5EE7FFFF      |CALL app5win.004033D6
00404C78   83C4 0C          |ADD ESP,0C
00404C7B   807D FF 0A       |CMP BYTE PTR SS:[EBP-1],0A
00404C7F   74 04            |JE SHORT app5win.00404C85
00404C81   C603 0D          |MOV BYTE PTR DS:[EBX],0D
00404C84   43               |INC EBX
00404C85   8B4D F8          |MOV ECX,DWORD PTR SS:[EBP-8]
00404C88   394D 10          |CMP DWORD PTR SS:[EBP+10],ECX
00404C8B  ^0F82 47FFFFFF    \JB app5win.00404BD8
00404C91   EB 10            JMP SHORT app5win.00404CA3
00404C93   8B07             MOV EAX,DWORD PTR DS:[EDI]
00404C95   8D7430 04        LEA ESI,DWORD PTR DS:[EAX+ESI+4]
00404C99   8A06             MOV AL,BYTE PTR DS:[ESI]
00404C9B   A8 40            TEST AL,40
00404C9D   75 04            JNZ SHORT app5win.00404CA3
00404C9F   0C 02            OR AL,2
00404CA1   8806             MOV BYTE PTR DS:[ESI],AL
00404CA3   2B5D 0C          SUB EBX,DWORD PTR SS:[EBP+C]
00404CA6   895D F8          MOV DWORD PTR SS:[EBP-8],EBX
00404CA9   8B45 F8          MOV EAX,DWORD PTR SS:[EBP-8]
00404CAC   EB 02            JMP SHORT app5win.00404CB0
00404CAE   33C0             XOR EAX,EAX
00404CB0   5F               POP EDI
00404CB1   5E               POP ESI
00404CB2   5B               POP EBX
00404CB3   C9               LEAVE
00404CB4   C3               RETN
00404CB5   8B4C24 04        MOV ECX,DWORD PTR SS:[ESP+4]
00404CB9   56               PUSH ESI
00404CBA   3B0D C0834000    CMP ECX,DWORD PTR DS:[4083C0]
00404CC0   57               PUSH EDI
00404CC1   73 58            JNB SHORT app5win.00404D1B
00404CC3   8BC1             MOV EAX,ECX
00404CC5   C1F8 05          SAR EAX,5
00404CC8   8D3C85 C0824000  LEA EDI,DWORD PTR DS:[EAX*4+4082C0]
00404CCF   8BC1             MOV EAX,ECX
00404CD1   83E0 1F          AND EAX,1F
00404CD4   8D34C0           LEA ESI,DWORD PTR DS:[EAX+EAX*8]
00404CD7   8B07             MOV EAX,DWORD PTR DS:[EDI]
00404CD9   C1E6 02          SHL ESI,2
00404CDC   03C6             ADD EAX,ESI
00404CDE   F640 04 01       TEST BYTE PTR DS:[EAX+4],1
00404CE2   74 37            JE SHORT app5win.00404D1B
00404CE4   8338 FF          CMP DWORD PTR DS:[EAX],-1
00404CE7   74 32            JE SHORT app5win.00404D1B
00404CE9   833D 84704000 01 CMP DWORD PTR DS:[407084],1
00404CF0   75 1F            JNZ SHORT app5win.00404D11
00404CF2   33C0             XOR EAX,EAX
00404CF4   2BC8             SUB ECX,EAX
00404CF6   74 10            JE SHORT app5win.00404D08
00404CF8   49               DEC ECX                                  ; Switch (cases 1..2)
00404CF9   74 08            JE SHORT app5win.00404D03
00404CFB   49               DEC ECX
00404CFC   75 13            JNZ SHORT app5win.00404D11
00404CFE   50               PUSH EAX                                 ; Case 2 of switch 00404CF8
00404CFF   6A F4            PUSH -0C
00404D01   EB 08            JMP SHORT app5win.00404D0B
00404D03   50               PUSH EAX                                 ; Case 1 of switch 00404CF8
00404D04   6A F5            PUSH -0B
00404D06   EB 03            JMP SHORT app5win.00404D0B
00404D08   50               PUSH EAX
00404D09   6A F6            PUSH -0A
00404D0B   FF15 B4604000    CALL DWORD PTR DS:[<&KERNEL32.SetStdHand>; kernel32.SetStdHandle
00404D11   8B07             MOV EAX,DWORD PTR DS:[EDI]               ; Default case of switch 00404CF8
00404D13   830C30 FF        OR DWORD PTR DS:[EAX+ESI],FFFFFFFF
00404D17   33C0             XOR EAX,EAX
00404D19   EB 16            JMP SHORT app5win.00404D31
00404D1B   E8 45FDFFFF      CALL app5win.00404A65
00404D20   C700 09000000    MOV DWORD PTR DS:[EAX],9
00404D26   E8 43FDFFFF      CALL app5win.00404A6E
00404D2B   8320 00          AND DWORD PTR DS:[EAX],0
00404D2E   83C8 FF          OR EAX,FFFFFFFF
00404D31   5F               POP EDI
00404D32   5E               POP ESI
00404D33   C3               RETN
00404D34   8B4424 04        MOV EAX,DWORD PTR SS:[ESP+4]
00404D38   3B05 C0834000    CMP EAX,DWORD PTR DS:[4083C0]
00404D3E   73 1F            JNB SHORT app5win.00404D5F
00404D40   8BC8             MOV ECX,EAX
00404D42   83E0 1F          AND EAX,1F
00404D45   C1F9 05          SAR ECX,5
00404D48   8D04C0           LEA EAX,DWORD PTR DS:[EAX+EAX*8]
00404D4B   8B0C8D C0824000  MOV ECX,DWORD PTR DS:[ECX*4+4082C0]
00404D52   F64481 04 01     TEST BYTE PTR DS:[ECX+EAX*4+4],1
00404D57   8D0481           LEA EAX,DWORD PTR DS:[ECX+EAX*4]
00404D5A   74 03            JE SHORT app5win.00404D5F
00404D5C   8B00             MOV EAX,DWORD PTR DS:[EAX]
00404D5E   C3               RETN
00404D5F   E8 01FDFFFF      CALL app5win.00404A65
00404D64   C700 09000000    MOV DWORD PTR DS:[EAX],9
00404D6A   E8 FFFCFFFF      CALL app5win.00404A6E
00404D6F   8320 00          AND DWORD PTR DS:[EAX],0
00404D72   83C8 FF          OR EAX,FFFFFFFF
00404D75   C3               RETN
00404D76   8B4424 04        MOV EAX,DWORD PTR SS:[ESP+4]
00404D7A   53               PUSH EBX
00404D7B   8BC8             MOV ECX,EAX
00404D7D   83E0 1F          AND EAX,1F
00404D80   C1F9 05          SAR ECX,5
00404D83   56               PUSH ESI
00404D84   57               PUSH EDI
00404D85   8B348D C0824000  MOV ESI,DWORD PTR DS:[ECX*4+4082C0]
00404D8C   8D1C8D C0824000  LEA EBX,DWORD PTR DS:[ECX*4+4082C0]
00404D93   8D3CC0           LEA EDI,DWORD PTR DS:[EAX+EAX*8]
00404D96   C1E7 02          SHL EDI,2
00404D99   03F7             ADD ESI,EDI
00404D9B   837E 08 00       CMP DWORD PTR DS:[ESI+8],0
00404D9F   75 23            JNZ SHORT app5win.00404DC4
00404DA1   6A 11            PUSH 11
00404DA3   E8 16E2FFFF      CALL app5win.00402FBE
00404DA8   837E 08 00       CMP DWORD PTR DS:[ESI+8],0
00404DAC   59               POP ECX
00404DAD   75 0D            JNZ SHORT app5win.00404DBC
00404DAF   8D46 0C          LEA EAX,DWORD PTR DS:[ESI+C]
00404DB2   50               PUSH EAX
00404DB3   FF15 80604000    CALL DWORD PTR DS:[<&KERNEL32.Initialize>; ntdll.RtlInitializeCriticalSection
00404DB9   FF46 08          INC DWORD PTR DS:[ESI+8]
00404DBC   6A 11            PUSH 11
00404DBE   E8 5CE2FFFF      CALL app5win.0040301F
00404DC3   59               POP ECX
00404DC4   8B03             MOV EAX,DWORD PTR DS:[EBX]
00404DC6   8D4438 0C        LEA EAX,DWORD PTR DS:[EAX+EDI+C]
00404DCA   50               PUSH EAX
00404DCB   FF15 0C604000    CALL DWORD PTR DS:[<&KERNEL32.EnterCriti>; ntdll.RtlEnterCriticalSection
00404DD1   5F               POP EDI
00404DD2   5E               POP ESI
00404DD3   5B               POP EBX
00404DD4   C3               RETN
00404DD5   8B4424 04        MOV EAX,DWORD PTR SS:[ESP+4]
00404DD9   8BC8             MOV ECX,EAX
00404DDB   83E0 1F          AND EAX,1F
00404DDE   C1F9 05          SAR ECX,5
00404DE1   8D04C0           LEA EAX,DWORD PTR DS:[EAX+EAX*8]
00404DE4   8B0C8D C0824000  MOV ECX,DWORD PTR DS:[ECX*4+4082C0]
00404DEB   8D4481 0C        LEA EAX,DWORD PTR DS:[ECX+EAX*4+C]
00404DEF   50               PUSH EAX
00404DF0   FF15 10604000    CALL DWORD PTR DS:[<&KERNEL32.LeaveCriti>; ntdll.RtlLeaveCriticalSection
00404DF6   C3               RETN
00404DF7   55               PUSH EBP
00404DF8   8BEC             MOV EBP,ESP
00404DFA   6A FF            PUSH -1
00404DFC   68 90644000      PUSH app5win.00406490
00404E01   68 EC2A4000      PUSH app5win.00402AEC                    ; SE handler installation
00404E06   64:A1 00000000   MOV EAX,DWORD PTR FS:[0]
00404E0C   50               PUSH EAX
00404E0D   64:8925 00000000 MOV DWORD PTR FS:[0],ESP
00404E14   83EC 1C          SUB ESP,1C
00404E17   53               PUSH EBX
00404E18   56               PUSH ESI
00404E19   57               PUSH EDI
00404E1A   8965 E8          MOV DWORD PTR SS:[EBP-18],ESP
00404E1D   33FF             XOR EDI,EDI
00404E1F   393D 1C7F4000    CMP DWORD PTR DS:[407F1C],EDI
00404E25   75 46            JNZ SHORT app5win.00404E6D
00404E27   57               PUSH EDI
00404E28   57               PUSH EDI
00404E29   6A 01            PUSH 1
00404E2B   5B               POP EBX
00404E2C   53               PUSH EBX
00404E2D   68 88644000      PUSH app5win.00406488
00404E32   BE 00010000      MOV ESI,100
00404E37   56               PUSH ESI
00404E38   57               PUSH EDI
00404E39   FF15 C0604000    CALL DWORD PTR DS:[<&KERNEL32.LCMapStrin>; kernel32.LCMapStringW
00404E3F   85C0             TEST EAX,EAX
00404E41   74 08            JE SHORT app5win.00404E4B
00404E43   891D 1C7F4000    MOV DWORD PTR DS:[407F1C],EBX
00404E49   EB 22            JMP SHORT app5win.00404E6D
00404E4B   57               PUSH EDI
00404E4C   57               PUSH EDI
00404E4D   53               PUSH EBX
00404E4E   68 84644000      PUSH app5win.00406484
00404E53   56               PUSH ESI
00404E54   57               PUSH EDI
00404E55   FF15 BC604000    CALL DWORD PTR DS:[<&KERNEL32.LCMapStrin>; kernel32.LCMapStringA
00404E5B   85C0             TEST EAX,EAX
00404E5D   0F84 22010000    JE app5win.00404F85
00404E63   C705 1C7F4000 02>MOV DWORD PTR DS:[407F1C],2
00404E6D   397D 14          CMP DWORD PTR SS:[EBP+14],EDI
00404E70   7E 10            JLE SHORT app5win.00404E82
00404E72   FF75 14          PUSH DWORD PTR SS:[EBP+14]
00404E75   FF75 10          PUSH DWORD PTR SS:[EBP+10]
00404E78   E8 9E010000      CALL app5win.0040501B
00404E7D   59               POP ECX
00404E7E   59               POP ECX
00404E7F   8945 14          MOV DWORD PTR SS:[EBP+14],EAX
00404E82   A1 1C7F4000      MOV EAX,DWORD PTR DS:[407F1C]
00404E87   83F8 02          CMP EAX,2
00404E8A   75 1D            JNZ SHORT app5win.00404EA9
00404E8C   FF75 1C          PUSH DWORD PTR SS:[EBP+1C]
00404E8F   FF75 18          PUSH DWORD PTR SS:[EBP+18]
00404E92   FF75 14          PUSH DWORD PTR SS:[EBP+14]
00404E95   FF75 10          PUSH DWORD PTR SS:[EBP+10]
00404E98   FF75 0C          PUSH DWORD PTR SS:[EBP+C]
00404E9B   FF75 08          PUSH DWORD PTR SS:[EBP+8]
00404E9E   FF15 BC604000    CALL DWORD PTR DS:[<&KERNEL32.LCMapStrin>; kernel32.LCMapStringA
00404EA4   E9 DE000000      JMP app5win.00404F87
00404EA9   83F8 01          CMP EAX,1
00404EAC   0F85 D3000000    JNZ app5win.00404F85
00404EB2   397D 20          CMP DWORD PTR SS:[EBP+20],EDI
00404EB5   75 08            JNZ SHORT app5win.00404EBF
00404EB7   A1 147F4000      MOV EAX,DWORD PTR DS:[407F14]
00404EBC   8945 20          MOV DWORD PTR SS:[EBP+20],EAX
00404EBF   57               PUSH EDI
00404EC0   57               PUSH EDI
00404EC1   FF75 14          PUSH DWORD PTR SS:[EBP+14]
00404EC4   FF75 10          PUSH DWORD PTR SS:[EBP+10]
00404EC7   8B45 24          MOV EAX,DWORD PTR SS:[EBP+24]
00404ECA   F7D8             NEG EAX
00404ECC   1BC0             SBB EAX,EAX
00404ECE   83E0 08          AND EAX,8
00404ED1   40               INC EAX
00404ED2   50               PUSH EAX
00404ED3   FF75 20          PUSH DWORD PTR SS:[EBP+20]
00404ED6   FF15 B8604000    CALL DWORD PTR DS:[<&KERNEL32.MultiByteT>; kernel32.MultiByteToWideChar
00404EDC   8BD8             MOV EBX,EAX
00404EDE   895D E4          MOV DWORD PTR SS:[EBP-1C],EBX
00404EE1   3BDF             CMP EBX,EDI
00404EE3   0F84 9C000000    JE app5win.00404F85
00404EE9   897D FC          MOV DWORD PTR SS:[EBP-4],EDI
00404EEC   8D041B           LEA EAX,DWORD PTR DS:[EBX+EBX]
00404EEF   83C0 03          ADD EAX,3
00404EF2   24 FC            AND AL,0FC
00404EF4   E8 27080000      CALL app5win.00405720
00404EF9   8965 E8          MOV DWORD PTR SS:[EBP-18],ESP
00404EFC   8BC4             MOV EAX,ESP
00404EFE   8945 DC          MOV DWORD PTR SS:[EBP-24],EAX
00404F01   834D FC FF       OR DWORD PTR SS:[EBP-4],FFFFFFFF
00404F05   EB 13            JMP SHORT app5win.00404F1A
00404F07   6A 01            PUSH 1
00404F09   58               POP EAX
00404F0A   C3               RETN
00404F0B   8B65 E8          MOV ESP,DWORD PTR SS:[EBP-18]
00404F0E   33FF             XOR EDI,EDI
00404F10   897D DC          MOV DWORD PTR SS:[EBP-24],EDI
00404F13   834D FC FF       OR DWORD PTR SS:[EBP-4],FFFFFFFF
00404F17   8B5D E4          MOV EBX,DWORD PTR SS:[EBP-1C]
00404F1A   397D DC          CMP DWORD PTR SS:[EBP-24],EDI
00404F1D   74 66            JE SHORT app5win.00404F85
00404F1F   53               PUSH EBX
00404F20   FF75 DC          PUSH DWORD PTR SS:[EBP-24]
00404F23   FF75 14          PUSH DWORD PTR SS:[EBP+14]
00404F26   FF75 10          PUSH DWORD PTR SS:[EBP+10]
00404F29   6A 01            PUSH 1
00404F2B   FF75 20          PUSH DWORD PTR SS:[EBP+20]
00404F2E   FF15 B8604000    CALL DWORD PTR DS:[<&KERNEL32.MultiByteT>; kernel32.MultiByteToWideChar
00404F34   85C0             TEST EAX,EAX
00404F36   74 4D            JE SHORT app5win.00404F85
00404F38   57               PUSH EDI
00404F39   57               PUSH EDI
00404F3A   53               PUSH EBX
00404F3B   FF75 DC          PUSH DWORD PTR SS:[EBP-24]
00404F3E   FF75 0C          PUSH DWORD PTR SS:[EBP+C]
00404F41   FF75 08          PUSH DWORD PTR SS:[EBP+8]
00404F44   FF15 C0604000    CALL DWORD PTR DS:[<&KERNEL32.LCMapStrin>; kernel32.LCMapStringW
00404F4A   8BF0             MOV ESI,EAX
00404F4C   8975 D8          MOV DWORD PTR SS:[EBP-28],ESI
00404F4F   3BF7             CMP ESI,EDI
00404F51   74 32            JE SHORT app5win.00404F85
00404F53   F645 0D 04       TEST BYTE PTR SS:[EBP+D],4
00404F57   74 40            JE SHORT app5win.00404F99
00404F59   397D 1C          CMP DWORD PTR SS:[EBP+1C],EDI
00404F5C   0F84 B2000000    JE app5win.00405014
00404F62   3B75 1C          CMP ESI,DWORD PTR SS:[EBP+1C]
00404F65   7F 1E            JG SHORT app5win.00404F85
00404F67   FF75 1C          PUSH DWORD PTR SS:[EBP+1C]
00404F6A   FF75 18          PUSH DWORD PTR SS:[EBP+18]
00404F6D   53               PUSH EBX
00404F6E   FF75 DC          PUSH DWORD PTR SS:[EBP-24]
00404F71   FF75 0C          PUSH DWORD PTR SS:[EBP+C]
00404F74   FF75 08          PUSH DWORD PTR SS:[EBP+8]
00404F77   FF15 C0604000    CALL DWORD PTR DS:[<&KERNEL32.LCMapStrin>; kernel32.LCMapStringW
00404F7D   85C0             TEST EAX,EAX
00404F7F   0F85 8F000000    JNZ app5win.00405014
00404F85   33C0             XOR EAX,EAX
00404F87   8D65 C8          LEA ESP,DWORD PTR SS:[EBP-38]
00404F8A   8B4D F0          MOV ECX,DWORD PTR SS:[EBP-10]
00404F8D   64:890D 00000000 MOV DWORD PTR FS:[0],ECX
00404F94   5F               POP EDI
00404F95   5E               POP ESI
00404F96   5B               POP EBX
00404F97   C9               LEAVE
00404F98   C3               RETN
00404F99   C745 FC 01000000 MOV DWORD PTR SS:[EBP-4],1
00404FA0   8D0436           LEA EAX,DWORD PTR DS:[ESI+ESI]
00404FA3   83C0 03          ADD EAX,3
00404FA6   24 FC            AND AL,0FC
00404FA8   E8 73070000      CALL app5win.00405720
00404FAD   8965 E8          MOV DWORD PTR SS:[EBP-18],ESP
00404FB0   8BDC             MOV EBX,ESP
00404FB2   895D E0          MOV DWORD PTR SS:[EBP-20],EBX
00404FB5   834D FC FF       OR DWORD PTR SS:[EBP-4],FFFFFFFF
00404FB9   EB 12            JMP SHORT app5win.00404FCD
00404FBB   6A 01            PUSH 1
00404FBD   58               POP EAX
00404FBE   C3               RETN
00404FBF   8B65 E8          MOV ESP,DWORD PTR SS:[EBP-18]
00404FC2   33FF             XOR EDI,EDI
00404FC4   33DB             XOR EBX,EBX
00404FC6   834D FC FF       OR DWORD PTR SS:[EBP-4],FFFFFFFF
00404FCA   8B75 D8          MOV ESI,DWORD PTR SS:[EBP-28]
00404FCD   3BDF             CMP EBX,EDI
00404FCF  ^74 B4            JE SHORT app5win.00404F85
00404FD1   56               PUSH ESI
00404FD2   53               PUSH EBX
00404FD3   FF75 E4          PUSH DWORD PTR SS:[EBP-1C]
00404FD6   FF75 DC          PUSH DWORD PTR SS:[EBP-24]
00404FD9   FF75 0C          PUSH DWORD PTR SS:[EBP+C]
00404FDC   FF75 08          PUSH DWORD PTR SS:[EBP+8]
00404FDF   FF15 C0604000    CALL DWORD PTR DS:[<&KERNEL32.LCMapStrin>; kernel32.LCMapStringW
00404FE5   85C0             TEST EAX,EAX
00404FE7  ^74 9C            JE SHORT app5win.00404F85
00404FE9   397D 1C          CMP DWORD PTR SS:[EBP+1C],EDI
00404FEC   57               PUSH EDI
00404FED   57               PUSH EDI
00404FEE   75 04            JNZ SHORT app5win.00404FF4
00404FF0   57               PUSH EDI
00404FF1   57               PUSH EDI
00404FF2   EB 06            JMP SHORT app5win.00404FFA
00404FF4   FF75 1C          PUSH DWORD PTR SS:[EBP+1C]
00404FF7   FF75 18          PUSH DWORD PTR SS:[EBP+18]
00404FFA   56               PUSH ESI
00404FFB   53               PUSH EBX
00404FFC   68 20020000      PUSH 220
00405001   FF75 20          PUSH DWORD PTR SS:[EBP+20]
00405004   FF15 2C604000    CALL DWORD PTR DS:[<&KERNEL32.WideCharTo>; kernel32.WideCharToMultiByte
0040500A   8BF0             MOV ESI,EAX
0040500C   3BF7             CMP ESI,EDI
0040500E  ^0F84 71FFFFFF    JE app5win.00404F85
00405014   8BC6             MOV EAX,ESI
00405016  ^E9 6CFFFFFF      JMP app5win.00404F87
0040501B   8B5424 08        MOV EDX,DWORD PTR SS:[ESP+8]
0040501F   8B4424 04        MOV EAX,DWORD PTR SS:[ESP+4]
00405023   85D2             TEST EDX,EDX
00405025   56               PUSH ESI
00405026   8D4A FF          LEA ECX,DWORD PTR DS:[EDX-1]
00405029   74 0D            JE SHORT app5win.00405038
0040502B   8038 00          /CMP BYTE PTR DS:[EAX],0
0040502E   74 08            |JE SHORT app5win.00405038
00405030   40               |INC EAX
00405031   8BF1             |MOV ESI,ECX
00405033   49               |DEC ECX
00405034   85F6             |TEST ESI,ESI
00405036  ^75 F3            \JNZ SHORT app5win.0040502B
00405038   8038 00          CMP BYTE PTR DS:[EAX],0
0040503B   5E               POP ESI
0040503C   75 05            JNZ SHORT app5win.00405043
0040503E   2B4424 04        SUB EAX,DWORD PTR SS:[ESP+4]
00405042   C3               RETN
00405043   8BC2             MOV EAX,EDX
00405045   C3               RETN
00405046   55               PUSH EBP
00405047   8BEC             MOV EBP,ESP
00405049   6A FF            PUSH -1
0040504B   68 A8644000      PUSH app5win.004064A8
00405050   68 EC2A4000      PUSH app5win.00402AEC                    ; SE handler installation
00405055   64:A1 00000000   MOV EAX,DWORD PTR FS:[0]
0040505B   50               PUSH EAX
0040505C   64:8925 00000000 MOV DWORD PTR FS:[0],ESP
00405063   83EC 18          SUB ESP,18
00405066   53               PUSH EBX
00405067   56               PUSH ESI
00405068   57               PUSH EDI
00405069   8965 E8          MOV DWORD PTR SS:[EBP-18],ESP
0040506C   A1 207F4000      MOV EAX,DWORD PTR DS:[407F20]
00405071   33DB             XOR EBX,EBX
00405073   3BC3             CMP EAX,EBX
00405075   75 3E            JNZ SHORT app5win.004050B5
00405077   8D45 E4          LEA EAX,DWORD PTR SS:[EBP-1C]
0040507A   50               PUSH EAX
0040507B   6A 01            PUSH 1
0040507D   5E               POP ESI
0040507E   56               PUSH ESI
0040507F   68 88644000      PUSH app5win.00406488
00405084   56               PUSH ESI
00405085   FF15 C8604000    CALL DWORD PTR DS:[<&KERNEL32.GetStringT>; kernel32.GetStringTypeW
0040508B   85C0             TEST EAX,EAX
0040508D   74 04            JE SHORT app5win.00405093
0040508F   8BC6             MOV EAX,ESI
00405091   EB 1D            JMP SHORT app5win.004050B0
00405093   8D45 E4          LEA EAX,DWORD PTR SS:[EBP-1C]
00405096   50               PUSH EAX
00405097   56               PUSH ESI
00405098   68 84644000      PUSH app5win.00406484
0040509D   56               PUSH ESI
0040509E   53               PUSH EBX
0040509F   FF15 C4604000    CALL DWORD PTR DS:[<&KERNEL32.GetStringT>; kernel32.GetStringTypeExA
004050A5   85C0             TEST EAX,EAX
004050A7   0F84 CE000000    JE app5win.0040517B
004050AD   6A 02            PUSH 2
004050AF   58               POP EAX
004050B0   A3 207F4000      MOV DWORD PTR DS:[407F20],EAX
004050B5   83F8 02          CMP EAX,2
004050B8   75 24            JNZ SHORT app5win.004050DE
004050BA   8B45 1C          MOV EAX,DWORD PTR SS:[EBP+1C]
004050BD   3BC3             CMP EAX,EBX
004050BF   75 05            JNZ SHORT app5win.004050C6
004050C1   A1 047F4000      MOV EAX,DWORD PTR DS:[407F04]
004050C6   FF75 14          PUSH DWORD PTR SS:[EBP+14]
004050C9   FF75 10          PUSH DWORD PTR SS:[EBP+10]
004050CC   FF75 0C          PUSH DWORD PTR SS:[EBP+C]
004050CF   FF75 08          PUSH DWORD PTR SS:[EBP+8]
004050D2   50               PUSH EAX
004050D3   FF15 C4604000    CALL DWORD PTR DS:[<&KERNEL32.GetStringT>; kernel32.GetStringTypeExA
004050D9   E9 9F000000      JMP app5win.0040517D
004050DE   83F8 01          CMP EAX,1
004050E1   0F85 94000000    JNZ app5win.0040517B
004050E7   395D 18          CMP DWORD PTR SS:[EBP+18],EBX
004050EA   75 08            JNZ SHORT app5win.004050F4
004050EC   A1 147F4000      MOV EAX,DWORD PTR DS:[407F14]
004050F1   8945 18          MOV DWORD PTR SS:[EBP+18],EAX
004050F4   53               PUSH EBX
004050F5   53               PUSH EBX
004050F6   FF75 10          PUSH DWORD PTR SS:[EBP+10]
004050F9   FF75 0C          PUSH DWORD PTR SS:[EBP+C]
004050FC   8B45 20          MOV EAX,DWORD PTR SS:[EBP+20]
004050FF   F7D8             NEG EAX
00405101   1BC0             SBB EAX,EAX
00405103   83E0 08          AND EAX,8
00405106   40               INC EAX
00405107   50               PUSH EAX
00405108   FF75 18          PUSH DWORD PTR SS:[EBP+18]
0040510B   FF15 B8604000    CALL DWORD PTR DS:[<&KERNEL32.MultiByteT>; kernel32.MultiByteToWideChar
00405111   8945 E0          MOV DWORD PTR SS:[EBP-20],EAX
00405114   3BC3             CMP EAX,EBX
00405116   74 63            JE SHORT app5win.0040517B
00405118   895D FC          MOV DWORD PTR SS:[EBP-4],EBX
0040511B   8D3C00           LEA EDI,DWORD PTR DS:[EAX+EAX]
0040511E   8BC7             MOV EAX,EDI
00405120   83C0 03          ADD EAX,3
00405123   24 FC            AND AL,0FC
00405125   E8 F6050000      CALL app5win.00405720
0040512A   8965 E8          MOV DWORD PTR SS:[EBP-18],ESP
0040512D   8BF4             MOV ESI,ESP
0040512F   8975 DC          MOV DWORD PTR SS:[EBP-24],ESI
00405132   57               PUSH EDI
00405133   53               PUSH EBX
00405134   56               PUSH ESI
00405135   E8 16C0FFFF      CALL app5win.00401150
0040513A   83C4 0C          ADD ESP,0C
0040513D   EB 0B            JMP SHORT app5win.0040514A
0040513F   6A 01            PUSH 1
00405141   58               POP EAX
00405142   C3               RETN
00405143   8B65 E8          MOV ESP,DWORD PTR SS:[EBP-18]
00405146   33DB             XOR EBX,EBX
00405148   33F6             XOR ESI,ESI
0040514A   834D FC FF       OR DWORD PTR SS:[EBP-4],FFFFFFFF
0040514E   3BF3             CMP ESI,EBX
00405150   74 29            JE SHORT app5win.0040517B
00405152   FF75 E0          PUSH DWORD PTR SS:[EBP-20]
00405155   56               PUSH ESI
00405156   FF75 10          PUSH DWORD PTR SS:[EBP+10]
00405159   FF75 0C          PUSH DWORD PTR SS:[EBP+C]
0040515C   6A 01            PUSH 1
0040515E   FF75 18          PUSH DWORD PTR SS:[EBP+18]
00405161   FF15 B8604000    CALL DWORD PTR DS:[<&KERNEL32.MultiByteT>; kernel32.MultiByteToWideChar
00405167   3BC3             CMP EAX,EBX
00405169   74 10            JE SHORT app5win.0040517B
0040516B   FF75 14          PUSH DWORD PTR SS:[EBP+14]
0040516E   50               PUSH EAX
0040516F   56               PUSH ESI
00405170   FF75 08          PUSH DWORD PTR SS:[EBP+8]
00405173   FF15 C8604000    CALL DWORD PTR DS:[<&KERNEL32.GetStringT>; kernel32.GetStringTypeW
00405179   EB 02            JMP SHORT app5win.0040517D
0040517B   33C0             XOR EAX,EAX
0040517D   8D65 CC          LEA ESP,DWORD PTR SS:[EBP-34]
00405180   8B4D F0          MOV ECX,DWORD PTR SS:[EBP-10]
00405183   64:890D 00000000 MOV DWORD PTR FS:[0],ECX
0040518A   5F               POP EDI
0040518B   5E               POP ESI
0040518C   5B               POP EBX
0040518D   C9               LEAVE
0040518E   C3               RETN
0040518F   CC               INT3
00405190   55               PUSH EBP
00405191   8BEC             MOV EBP,ESP
00405193   57               PUSH EDI
00405194   56               PUSH ESI
00405195   8B75 0C          MOV ESI,DWORD PTR SS:[EBP+C]
00405198   8B4D 10          MOV ECX,DWORD PTR SS:[EBP+10]
0040519B   8B7D 08          MOV EDI,DWORD PTR SS:[EBP+8]
0040519E   8BC1             MOV EAX,ECX
004051A0   8BD1             MOV EDX,ECX
004051A2   03C6             ADD EAX,ESI
004051A4   3BFE             CMP EDI,ESI
004051A6   76 08            JBE SHORT app5win.004051B0
004051A8   3BF8             CMP EDI,EAX
004051AA   0F82 78010000    JB app5win.00405328
004051B0   F7C7 03000000    TEST EDI,3
004051B6   75 14            JNZ SHORT app5win.004051CC
004051B8   C1E9 02          SHR ECX,2
004051BB   83E2 03          AND EDX,3
004051BE   83F9 08          CMP ECX,8
004051C1   72 29            JB SHORT app5win.004051EC
004051C3   F3:A5            REP MOVS DWORD PTR ES:[EDI],DWORD PTR DS>
004051C5   FF2495 D8524000  JMP DWORD PTR DS:[EDX*4+4052D8]
004051CC   8BC7             MOV EAX,EDI
004051CE   BA 03000000      MOV EDX,3
004051D3   83E9 04          SUB ECX,4
004051D6   72 0C            JB SHORT app5win.004051E4
004051D8   83E0 03          AND EAX,3
004051DB   03C8             ADD ECX,EAX
004051DD   FF2485 F0514000  JMP DWORD PTR DS:[EAX*4+4051F0]
004051E4   FF248D E8524000  JMP DWORD PTR DS:[ECX*4+4052E8]
004051EB   90               NOP
004051EC   FF248D 6C524000  JMP DWORD PTR DS:[ECX*4+40526C]
004051F3   90               NOP
004051F4   0052 40          ADD BYTE PTR DS:[EDX+40],DL              ; Switch table (1-based) used at 004051DD
004051F7   002C52           ADD BYTE PTR DS:[EDX+EDX*2],CH
004051FA   40               INC EAX
004051FB   0050 52          ADD BYTE PTR DS:[EAX+52],DL
004051FE   40               INC EAX
004051FF   0023             ADD BYTE PTR DS:[EBX],AH
00405201   D18A 0688078A    ROR DWORD PTR DS:[EDX+8A078806],1
00405207   46               INC ESI
00405208   0188 47018A46    ADD DWORD PTR DS:[EAX+468A0147],ECX
0040520E   02C1             ADD AL,CL
00405210  -E9 02884702      JMP 0287DA17
00405215   83C6 03          ADD ESI,3
00405218   83C7 03          ADD EDI,3
0040521B   83F9 08          CMP ECX,8
0040521E  ^72 CC            JB SHORT app5win.004051EC
00405220   F3:A5            REP MOVS DWORD PTR ES:[EDI],DWORD PTR DS>
00405222   FF2495 D8524000  JMP DWORD PTR DS:[EDX*4+4052D8]
00405229   8D49 00          LEA ECX,DWORD PTR DS:[ECX]
0040522C   23D1             AND EDX,ECX
0040522E   8A06             MOV AL,BYTE PTR DS:[ESI]
00405230   8807             MOV BYTE PTR DS:[EDI],AL
00405232   8A46 01          MOV AL,BYTE PTR DS:[ESI+1]
00405235   C1E9 02          SHR ECX,2
00405238   8847 01          MOV BYTE PTR DS:[EDI+1],AL
0040523B   83C6 02          ADD ESI,2
0040523E   83C7 02          ADD EDI,2
00405241   83F9 08          CMP ECX,8
00405244  ^72 A6            JB SHORT app5win.004051EC
00405246   F3:A5            REP MOVS DWORD PTR ES:[EDI],DWORD PTR DS>
00405248   FF2495 D8524000  JMP DWORD PTR DS:[EDX*4+4052D8]
0040524F   90               NOP
00405250   23D1             AND EDX,ECX
00405252   8A06             MOV AL,BYTE PTR DS:[ESI]
00405254   8807             MOV BYTE PTR DS:[EDI],AL
00405256   46               INC ESI
00405257   C1E9 02          SHR ECX,2
0040525A   47               INC EDI
0040525B   83F9 08          CMP ECX,8
0040525E  ^72 8C            JB SHORT app5win.004051EC
00405260   F3:A5            REP MOVS DWORD PTR ES:[EDI],DWORD PTR DS>
00405262   FF2495 D8524000  JMP DWORD PTR DS:[EDX*4+4052D8]
00405269   8D49 00          LEA ECX,DWORD PTR DS:[ECX]
0040526C   CF               IRETD                                    ; Switch table used at 004051EC
0040526D   52               PUSH EDX
0040526E   40               INC EAX
0040526F   00BC52 4000B452  ADD BYTE PTR DS:[EDX+EDX*2+52B40040],BH
00405276   40               INC EAX
00405277   00AC52 4000A452  ADD BYTE PTR DS:[EDX+EDX*2+52A40040],CH
0040527E   40               INC EAX
0040527F   009C52 40009452  ADD BYTE PTR DS:[EDX+EDX*2+52940040],BL
00405286   40               INC EAX
00405287   008C52 40008B44  ADD BYTE PTR DS:[EDX+EDX*2+448B0040],CL
0040528E   8EE4             MOV FS,SP                                ; Modification of segment register
00405290   89448F E4        MOV DWORD PTR DS:[EDI+ECX*4-1C],EAX
00405294   8B448E E8        MOV EAX,DWORD PTR DS:[ESI+ECX*4-18]
00405298   89448F E8        MOV DWORD PTR DS:[EDI+ECX*4-18],EAX
0040529C   8B448E EC        MOV EAX,DWORD PTR DS:[ESI+ECX*4-14]
004052A0   89448F EC        MOV DWORD PTR DS:[EDI+ECX*4-14],EAX
004052A4   8B448E F0        MOV EAX,DWORD PTR DS:[ESI+ECX*4-10]
004052A8   89448F F0        MOV DWORD PTR DS:[EDI+ECX*4-10],EAX
004052AC   8B448E F4        MOV EAX,DWORD PTR DS:[ESI+ECX*4-C]
004052B0   89448F F4        MOV DWORD PTR DS:[EDI+ECX*4-C],EAX
004052B4   8B448E F8        MOV EAX,DWORD PTR DS:[ESI+ECX*4-8]
004052B8   89448F F8        MOV DWORD PTR DS:[EDI+ECX*4-8],EAX
004052BC   8B448E FC        MOV EAX,DWORD PTR DS:[ESI+ECX*4-4]
004052C0   89448F FC        MOV DWORD PTR DS:[EDI+ECX*4-4],EAX
004052C4   8D048D 00000000  LEA EAX,DWORD PTR DS:[ECX*4]
004052CB   03F0             ADD ESI,EAX
004052CD   03F8             ADD EDI,EAX
004052CF   FF2495 D8524000  JMP DWORD PTR DS:[EDX*4+4052D8]
004052D6   8BFF             MOV EDI,EDI
004052D8   E8 524000F0      CALL F040932F                            ; Switch table used at 00405222 and other places
004052DD   52               PUSH EDX
004052DE   40               INC EAX
004052DF   00FC             ADD AH,BH
004052E1   52               PUSH EDX
004052E2   40               INC EAX
004052E3   0010             ADD BYTE PTR DS:[EAX],DL
004052E5   53               PUSH EBX
004052E6   40               INC EAX
004052E7   008B 45085E5F    ADD BYTE PTR DS:[EBX+5F5E0845],CL
004052ED   C9               LEAVE
004052EE   C3               RETN
004052EF   90               NOP
004052F0   8A06             MOV AL,BYTE PTR DS:[ESI]
004052F2   8807             MOV BYTE PTR DS:[EDI],AL
004052F4   8B45 08          MOV EAX,DWORD PTR SS:[EBP+8]
004052F7   5E               POP ESI
004052F8   5F               POP EDI
004052F9   C9               LEAVE
004052FA   C3               RETN
004052FB   90               NOP
004052FC   8A06             MOV AL,BYTE PTR DS:[ESI]
004052FE   8807             MOV BYTE PTR DS:[EDI],AL
00405300   8A46 01          MOV AL,BYTE PTR DS:[ESI+1]
00405303   8847 01          MOV BYTE PTR DS:[EDI+1],AL
00405306   8B45 08          MOV EAX,DWORD PTR SS:[EBP+8]
00405309   5E               POP ESI
0040530A   5F               POP EDI
0040530B   C9               LEAVE
0040530C   C3               RETN
0040530D   8D49 00          LEA ECX,DWORD PTR DS:[ECX]
00405310   8A06             MOV AL,BYTE PTR DS:[ESI]
00405312   8807             MOV BYTE PTR DS:[EDI],AL
00405314   8A46 01          MOV AL,BYTE PTR DS:[ESI+1]
00405317   8847 01          MOV BYTE PTR DS:[EDI+1],AL
0040531A   8A46 02          MOV AL,BYTE PTR DS:[ESI+2]
0040531D   8847 02          MOV BYTE PTR DS:[EDI+2],AL
00405320   8B45 08          MOV EAX,DWORD PTR SS:[EBP+8]
00405323   5E               POP ESI
00405324   5F               POP EDI
00405325   C9               LEAVE
00405326   C3               RETN
00405327   90               NOP
00405328   8D7431 FC        LEA ESI,DWORD PTR DS:[ECX+ESI-4]
0040532C   8D7C39 FC        LEA EDI,DWORD PTR DS:[ECX+EDI-4]
00405330   F7C7 03000000    TEST EDI,3
00405336   75 24            JNZ SHORT app5win.0040535C
00405338   C1E9 02          SHR ECX,2
0040533B   83E2 03          AND EDX,3
0040533E   83F9 08          CMP ECX,8
00405341   72 0D            JB SHORT app5win.00405350
00405343   FD               STD
00405344   F3:A5            REP MOVS DWORD PTR ES:[EDI],DWORD PTR DS>
00405346   FC               CLD
00405347   FF2495 70544000  JMP DWORD PTR DS:[EDX*4+405470]
0040534E   8BFF             MOV EDI,EDI
00405350   F7D9             NEG ECX
00405352   FF248D 20544000  JMP DWORD PTR DS:[ECX*4+405420]
00405359   8D49 00          LEA ECX,DWORD PTR DS:[ECX]
0040535C   8BC7             MOV EAX,EDI
0040535E   BA 03000000      MOV EDX,3                                ; Switch (cases 0..3)
00405363   83F9 04          CMP ECX,4
00405366   72 0C            JB SHORT app5win.00405374
00405368   83E0 03          AND EAX,3                                ; Default case of switch 0040535E
0040536B   2BC8             SUB ECX,EAX
0040536D   FF2485 78534000  JMP DWORD PTR DS:[EAX*4+405378]
00405374   FF248D 70544000  JMP DWORD PTR DS:[ECX*4+405470]
0040537B   90               NOP
0040537C   8853 40          MOV BYTE PTR DS:[EBX+40],DL              ; Switch table (1-based) used at 0040536D
0040537F   00A8 534000D0    ADD BYTE PTR DS:[EAX+D0004053],CH
00405385   53               PUSH EBX
00405386   40               INC EAX
00405387   008A 460323D1    ADD BYTE PTR DS:[EDX+D1230346],CL
0040538D   8847 03          MOV BYTE PTR DS:[EDI+3],AL
00405390   4E               DEC ESI
00405391   C1E9 02          SHR ECX,2
00405394   4F               DEC EDI
00405395   83F9 08          CMP ECX,8
00405398  ^72 B6            JB SHORT app5win.00405350
0040539A   FD               STD
0040539B   F3:A5            REP MOVS DWORD PTR ES:[EDI],DWORD PTR DS>
0040539D   FC               CLD
0040539E   FF2495 70544000  JMP DWORD PTR DS:[EDX*4+405470]
004053A5   8D49 00          LEA ECX,DWORD PTR DS:[ECX]
004053A8   8A46 03          MOV AL,BYTE PTR DS:[ESI+3]
004053AB   23D1             AND EDX,ECX
004053AD   8847 03          MOV BYTE PTR DS:[EDI+3],AL
004053B0   8A46 02          MOV AL,BYTE PTR DS:[ESI+2]
004053B3   C1E9 02          SHR ECX,2
004053B6   8847 02          MOV BYTE PTR DS:[EDI+2],AL
004053B9   83EE 02          SUB ESI,2
004053BC   83EF 02          SUB EDI,2
004053BF   83F9 08          CMP ECX,8
004053C2  ^72 8C            JB SHORT app5win.00405350
004053C4   FD               STD
004053C5   F3:A5            REP MOVS DWORD PTR ES:[EDI],DWORD PTR DS>
004053C7   FC               CLD
004053C8   FF2495 70544000  JMP DWORD PTR DS:[EDX*4+405470]
004053CF   90               NOP
004053D0   8A46 03          MOV AL,BYTE PTR DS:[ESI+3]
004053D3   23D1             AND EDX,ECX
004053D5   8847 03          MOV BYTE PTR DS:[EDI+3],AL
004053D8   8A46 02          MOV AL,BYTE PTR DS:[ESI+2]
004053DB   8847 02          MOV BYTE PTR DS:[EDI+2],AL
004053DE   8A46 01          MOV AL,BYTE PTR DS:[ESI+1]
004053E1   C1E9 02          SHR ECX,2
004053E4   8847 01          MOV BYTE PTR DS:[EDI+1],AL
004053E7   83EE 03          SUB ESI,3
004053EA   83EF 03          SUB EDI,3
004053ED   83F9 08          CMP ECX,8
004053F0  ^0F82 5AFFFFFF    JB app5win.00405350
004053F6   FD               STD
004053F7   F3:A5            REP MOVS DWORD PTR ES:[EDI],DWORD PTR DS>
004053F9   FC               CLD
004053FA   FF2495 70544000  JMP DWORD PTR DS:[EDX*4+405470]
00405401   8D49 00          LEA ECX,DWORD PTR DS:[ECX]
00405404   24 54            AND AL,54
00405406   40               INC EAX
00405407   002C54           ADD BYTE PTR SS:[ESP+EDX*2],CH
0040540A   40               INC EAX
0040540B   003454           ADD BYTE PTR SS:[ESP+EDX*2],DH
0040540E   40               INC EAX
0040540F   003C54           ADD BYTE PTR SS:[ESP+EDX*2],BH
00405412   40               INC EAX
00405413   004454 40        ADD BYTE PTR SS:[ESP+EDX*2+40],AL
00405417   004C54 40        ADD BYTE PTR SS:[ESP+EDX*2+40],CL
0040541B   005454 40        ADD BYTE PTR SS:[ESP+EDX*2+40],DL
0040541F   0067 54          ADD BYTE PTR DS:[EDI+54],AH
00405422   40               INC EAX
00405423   008B 448E1C89    ADD BYTE PTR DS:[EBX+891C8E44],CL
00405429   44               INC ESP
0040542A   8F               ???                                      ; Unknown command
0040542B   1C 8B            SBB AL,8B
0040542D   44               INC ESP
0040542E   8E18             MOV DS,WORD PTR DS:[EAX]                 ; Modification of segment register
00405430   89448F 18        MOV DWORD PTR DS:[EDI+ECX*4+18],EAX
00405434   8B448E 14        MOV EAX,DWORD PTR DS:[ESI+ECX*4+14]
00405438   89448F 14        MOV DWORD PTR DS:[EDI+ECX*4+14],EAX
0040543C   8B448E 10        MOV EAX,DWORD PTR DS:[ESI+ECX*4+10]
00405440   89448F 10        MOV DWORD PTR DS:[EDI+ECX*4+10],EAX
00405444   8B448E 0C        MOV EAX,DWORD PTR DS:[ESI+ECX*4+C]
00405448   89448F 0C        MOV DWORD PTR DS:[EDI+ECX*4+C],EAX
0040544C   8B448E 08        MOV EAX,DWORD PTR DS:[ESI+ECX*4+8]
00405450   89448F 08        MOV DWORD PTR DS:[EDI+ECX*4+8],EAX
00405454   8B448E 04        MOV EAX,DWORD PTR DS:[ESI+ECX*4+4]
00405458   89448F 04        MOV DWORD PTR DS:[EDI+ECX*4+4],EAX
0040545C   8D048D 00000000  LEA EAX,DWORD PTR DS:[ECX*4]
00405463   03F0             ADD ESI,EAX
00405465   03F8             ADD EDI,EAX
00405467   FF2495 70544000  JMP DWORD PTR DS:[EDX*4+405470]
0040546E   8BFF             MOV EDI,EDI
00405470   805440 00 88     ADC BYTE PTR DS:[EAX+EAX*2],88           ; Switch table used at 00405374 and other places
00405475   54               PUSH ESP
00405476   40               INC EAX
00405477   0098 544000AC    ADD BYTE PTR DS:[EAX+AC004054],BL
0040547D   54               PUSH ESP
0040547E   40               INC EAX
0040547F   008B 45085E5F    ADD BYTE PTR DS:[EBX+5F5E0845],CL
00405485   C9               LEAVE
00405486   C3               RETN
00405487   90               NOP
00405488   8A46 03          MOV AL,BYTE PTR DS:[ESI+3]               ; Case 1 of switch 0040535E
0040548B   8847 03          MOV BYTE PTR DS:[EDI+3],AL
0040548E   8B45 08          MOV EAX,DWORD PTR SS:[EBP+8]
00405491   5E               POP ESI
00405492   5F               POP EDI
00405493   C9               LEAVE
00405494   C3               RETN
00405495   8D49 00          LEA ECX,DWORD PTR DS:[ECX]
00405498   8A46 03          MOV AL,BYTE PTR DS:[ESI+3]               ; Case 2 of switch 0040535E
0040549B   8847 03          MOV BYTE PTR DS:[EDI+3],AL
0040549E   8A46 02          MOV AL,BYTE PTR DS:[ESI+2]
004054A1   8847 02          MOV BYTE PTR DS:[EDI+2],AL
004054A4   8B45 08          MOV EAX,DWORD PTR SS:[EBP+8]
004054A7   5E               POP ESI
004054A8   5F               POP EDI
004054A9   C9               LEAVE
004054AA   C3               RETN
004054AB   90               NOP
004054AC   8A46 03          MOV AL,BYTE PTR DS:[ESI+3]               ; Case 3 of switch 0040535E
004054AF   8847 03          MOV BYTE PTR DS:[EDI+3],AL
004054B2   8A46 02          MOV AL,BYTE PTR DS:[ESI+2]
004054B5   8847 02          MOV BYTE PTR DS:[EDI+2],AL
004054B8   8A46 01          MOV AL,BYTE PTR DS:[ESI+1]
004054BB   8847 01          MOV BYTE PTR DS:[EDI+1],AL
004054BE   8B45 08          MOV EAX,DWORD PTR SS:[EBP+8]
004054C1   5E               POP ESI
004054C2   5F               POP EDI
004054C3   C9               LEAVE
004054C4   C3               RETN
004054C5   56               PUSH ESI
004054C6   8B7424 08        MOV ESI,DWORD PTR SS:[ESP+8]
004054CA   3B35 C0834000    CMP ESI,DWORD PTR DS:[4083C0]
004054D0   73 38            JNB SHORT app5win.0040550A
004054D2   8BCE             MOV ECX,ESI
004054D4   8BC6             MOV EAX,ESI
004054D6   C1F9 05          SAR ECX,5
004054D9   83E0 1F          AND EAX,1F
004054DC   8B0C8D C0824000  MOV ECX,DWORD PTR DS:[ECX*4+4082C0]
004054E3   8D04C0           LEA EAX,DWORD PTR DS:[EAX+EAX*8]
004054E6   F64481 04 01     TEST BYTE PTR DS:[ECX+EAX*4+4],1
004054EB   74 1D            JE SHORT app5win.0040550A
004054ED   57               PUSH EDI
004054EE   56               PUSH ESI
004054EF   E8 82F8FFFF      CALL app5win.00404D76
004054F4   56               PUSH ESI
004054F5   E8 28000000      CALL app5win.00405522
004054FA   56               PUSH ESI
004054FB   8BF8             MOV EDI,EAX
004054FD   E8 D3F8FFFF      CALL app5win.00404DD5
00405502   83C4 0C          ADD ESP,0C
00405505   8BC7             MOV EAX,EDI
00405507   5F               POP EDI
00405508   5E               POP ESI
00405509   C3               RETN
0040550A   E8 56F5FFFF      CALL app5win.00404A65
0040550F   C700 09000000    MOV DWORD PTR DS:[EAX],9
00405515   E8 54F5FFFF      CALL app5win.00404A6E
0040551A   8320 00          AND DWORD PTR DS:[EAX],0
0040551D   83C8 FF          OR EAX,FFFFFFFF
00405520   5E               POP ESI
00405521   C3               RETN
00405522   56               PUSH ESI
00405523   8B7424 08        MOV ESI,DWORD PTR SS:[ESP+8]
00405527   57               PUSH EDI
00405528   56               PUSH ESI
00405529   E8 06F8FFFF      CALL app5win.00404D34
0040552E   83F8 FF          CMP EAX,-1
00405531   59               POP ECX
00405532   74 3C            JE SHORT app5win.00405570
00405534   83FE 01          CMP ESI,1
00405537   74 05            JE SHORT app5win.0040553E
00405539   83FE 02          CMP ESI,2
0040553C   75 16            JNZ SHORT app5win.00405554
0040553E   6A 02            PUSH 2
00405540   E8 EFF7FFFF      CALL app5win.00404D34
00405545   6A 01            PUSH 1
00405547   8BF8             MOV EDI,EAX
00405549   E8 E6F7FFFF      CALL app5win.00404D34
0040554E   59               POP ECX
0040554F   3BC7             CMP EAX,EDI
00405551   59               POP ECX
00405552   74 1C            JE SHORT app5win.00405570
00405554   56               PUSH ESI
00405555   E8 DAF7FFFF      CALL app5win.00404D34
0040555A   59               POP ECX
0040555B   50               PUSH EAX
0040555C   FF15 CC604000    CALL DWORD PTR DS:[<&KERNEL32.CloseHandl>; kernel32.CloseHandle
00405562   85C0             TEST EAX,EAX
00405564   75 0A            JNZ SHORT app5win.00405570
00405566   FF15 60604000    CALL DWORD PTR DS:[<&KERNEL32.GetLastErr>; kernel32.GetLastError
0040556C   8BF8             MOV EDI,EAX
0040556E   EB 02            JMP SHORT app5win.00405572
00405570   33FF             XOR EDI,EDI
00405572   56               PUSH ESI
00405573   E8 3DF7FFFF      CALL app5win.00404CB5
00405578   8BC6             MOV EAX,ESI
0040557A   83E6 1F          AND ESI,1F
0040557D   C1F8 05          SAR EAX,5
00405580   59               POP ECX
00405581   8B0485 C0824000  MOV EAX,DWORD PTR DS:[EAX*4+4082C0]
00405588   8D0CF6           LEA ECX,DWORD PTR DS:[ESI+ESI*8]
0040558B   806488 04 00     AND BYTE PTR DS:[EAX+ECX*4+4],0
00405590   85FF             TEST EDI,EDI
00405592   74 0C            JE SHORT app5win.004055A0
00405594   57               PUSH EDI
00405595   E8 58F4FFFF      CALL app5win.004049F2
0040559A   59               POP ECX
0040559B   83C8 FF          OR EAX,FFFFFFFF
0040559E   EB 02            JMP SHORT app5win.004055A2
004055A0   33C0             XOR EAX,EAX
004055A2   5F               POP EDI
004055A3   5E               POP ESI
004055A4   C3               RETN
004055A5   56               PUSH ESI
004055A6   8B7424 08        MOV ESI,DWORD PTR SS:[ESP+8]
004055AA   8B46 0C          MOV EAX,DWORD PTR DS:[ESI+C]
004055AD   A8 83            TEST AL,83
004055AF   74 1D            JE SHORT app5win.004055CE
004055B1   A8 08            TEST AL,8
004055B3   74 19            JE SHORT app5win.004055CE
004055B5   FF76 08          PUSH DWORD PTR DS:[ESI+8]
004055B8   E8 F8E3FFFF      CALL app5win.004039B5
004055BD   66:8166 0C F7FB  AND WORD PTR DS:[ESI+C],0FBF7
004055C3   33C0             XOR EAX,EAX
004055C5   59               POP ECX
004055C6   8906             MOV DWORD PTR DS:[ESI],EAX
004055C8   8946 08          MOV DWORD PTR DS:[ESI+8],EAX
004055CB   8946 04          MOV DWORD PTR DS:[ESI+4],EAX
004055CE   5E               POP ESI
004055CF   C3               RETN
004055D0   8B5424 04        MOV EDX,DWORD PTR SS:[ESP+4]
004055D4   8B4C24 08        MOV ECX,DWORD PTR SS:[ESP+8]
004055D8   F7C2 03000000    TEST EDX,3
004055DE   75 3C            JNZ SHORT app5win.0040561C
004055E0   8B02             MOV EAX,DWORD PTR DS:[EDX]
004055E2   3A01             CMP AL,BYTE PTR DS:[ECX]
004055E4   75 2E            JNZ SHORT app5win.00405614
004055E6   0AC0             OR AL,AL
004055E8   74 26            JE SHORT app5win.00405610
004055EA   3A61 01          CMP AH,BYTE PTR DS:[ECX+1]
004055ED   75 25            JNZ SHORT app5win.00405614
004055EF   0AE4             OR AH,AH
004055F1   74 1D            JE SHORT app5win.00405610
004055F3   C1E8 10          SHR EAX,10
004055F6   3A41 02          CMP AL,BYTE PTR DS:[ECX+2]
004055F9   75 19            JNZ SHORT app5win.00405614
004055FB   0AC0             OR AL,AL
004055FD   74 11            JE SHORT app5win.00405610
004055FF   3A61 03          CMP AH,BYTE PTR DS:[ECX+3]
00405602   75 10            JNZ SHORT app5win.00405614
00405604   83C1 04          ADD ECX,4
00405607   83C2 04          ADD EDX,4
0040560A   0AE4             OR AH,AH
0040560C  ^75 D2            JNZ SHORT app5win.004055E0
0040560E   8BFF             MOV EDI,EDI
00405610   33C0             XOR EAX,EAX
00405612   C3               RETN
00405613   90               NOP
00405614   1BC0             SBB EAX,EAX
00405616   D1E0             SHL EAX,1
00405618   40               INC EAX
00405619   C3               RETN
0040561A   8BFF             MOV EDI,EDI
0040561C   F7C2 01000000    TEST EDX,1
00405622   74 14            JE SHORT app5win.00405638
00405624   8A02             MOV AL,BYTE PTR DS:[EDX]
00405626   42               INC EDX
00405627   3A01             CMP AL,BYTE PTR DS:[ECX]
00405629  ^75 E9            JNZ SHORT app5win.00405614
0040562B   41               INC ECX
0040562C   0AC0             OR AL,AL
0040562E  ^74 E0            JE SHORT app5win.00405610
00405630   F7C2 02000000    TEST EDX,2
00405636  ^74 A8            JE SHORT app5win.004055E0
00405638   66:8B02          MOV AX,WORD PTR DS:[EDX]
0040563B   83C2 02          ADD EDX,2
0040563E   3A01             CMP AL,BYTE PTR DS:[ECX]
00405640  ^75 D2            JNZ SHORT app5win.00405614
00405642   0AC0             OR AL,AL
00405644  ^74 CA            JE SHORT app5win.00405610
00405646   3A61 01          CMP AH,BYTE PTR DS:[ECX+1]
00405649  ^75 C9            JNZ SHORT app5win.00405614
0040564B   0AE4             OR AH,AH
0040564D  ^74 C1            JE SHORT app5win.00405610
0040564F   83C1 02          ADD ECX,2
00405652  ^EB 8C            JMP SHORT app5win.004055E0
00405654   CC               INT3
00405655   CC               INT3
00405656   CC               INT3
00405657   CC               INT3
00405658   CC               INT3
00405659   CC               INT3
0040565A   CC               INT3
0040565B   CC               INT3
0040565C   CC               INT3
0040565D   CC               INT3
0040565E   CC               INT3
0040565F   CC               INT3
00405660   55               PUSH EBP
00405661   8BEC             MOV EBP,ESP
00405663   56               PUSH ESI
00405664   33C0             XOR EAX,EAX
00405666   50               PUSH EAX
00405667   50               PUSH EAX
00405668   50               PUSH EAX
00405669   50               PUSH EAX
0040566A   50               PUSH EAX
0040566B   50               PUSH EAX
0040566C   50               PUSH EAX
0040566D   50               PUSH EAX
0040566E   8B55 0C          MOV EDX,DWORD PTR SS:[EBP+C]
00405671   8D49 00          LEA ECX,DWORD PTR DS:[ECX]
00405674   8A02             /MOV AL,BYTE PTR DS:[EDX]
00405676   0AC0             |OR AL,AL
00405678   74 07            |JE SHORT app5win.00405681
0040567A   42               |INC EDX
0040567B   0FAB0424         |BTS DWORD PTR SS:[ESP],EAX
0040567F  ^EB F3            \JMP SHORT app5win.00405674
00405681   8B75 08          MOV ESI,DWORD PTR SS:[EBP+8]
00405684   83C9 FF          OR ECX,FFFFFFFF
00405687   90               NOP
00405688   41               /INC ECX
00405689   8A06             |MOV AL,BYTE PTR DS:[ESI]
0040568B   0AC0             |OR AL,AL
0040568D   74 07            |JE SHORT app5win.00405696
0040568F   46               |INC ESI
00405690   0FA30424         |BT DWORD PTR SS:[ESP],EAX
00405694  ^73 F2            \JNB SHORT app5win.00405688
00405696   8BC1             MOV EAX,ECX
00405698   83C4 20          ADD ESP,20
0040569B   5E               POP ESI
0040569C   C9               LEAVE
0040569D   C3               RETN
0040569E   CC               INT3
0040569F   CC               INT3
004056A0   55               PUSH EBP
004056A1   8BEC             MOV EBP,ESP
004056A3   57               PUSH EDI
004056A4   56               PUSH ESI
004056A5   53               PUSH EBX
004056A6   8B4D 10          MOV ECX,DWORD PTR SS:[EBP+10]
004056A9   E3 26            JECXZ SHORT app5win.004056D1
004056AB   8BD9             MOV EBX,ECX
004056AD   8B7D 08          MOV EDI,DWORD PTR SS:[EBP+8]
004056B0   8BF7             MOV ESI,EDI
004056B2   33C0             XOR EAX,EAX
004056B4   F2:AE            REPNE SCAS BYTE PTR ES:[EDI]
004056B6   F7D9             NEG ECX
004056B8   03CB             ADD ECX,EBX
004056BA   8BFE             MOV EDI,ESI
004056BC   8B75 0C          MOV ESI,DWORD PTR SS:[EBP+C]
004056BF   F3:A6            REPE CMPS BYTE PTR ES:[EDI],BYTE PTR DS:>
004056C1   8A46 FF          MOV AL,BYTE PTR DS:[ESI-1]
004056C4   33C9             XOR ECX,ECX
004056C6   3A47 FF          CMP AL,BYTE PTR DS:[EDI-1]
004056C9   77 04            JA SHORT app5win.004056CF
004056CB   74 04            JE SHORT app5win.004056D1
004056CD   49               DEC ECX
004056CE   49               DEC ECX
004056CF   F7D1             NOT ECX
004056D1   8BC1             MOV EAX,ECX
004056D3   5B               POP EBX
004056D4   5E               POP ESI
004056D5   5F               POP EDI
004056D6   C9               LEAVE
004056D7   C3               RETN
004056D8   CC               INT3
004056D9   CC               INT3
004056DA   CC               INT3
004056DB   CC               INT3
004056DC   CC               INT3
004056DD   CC               INT3
004056DE   CC               INT3
004056DF   CC               INT3
004056E0   55               PUSH EBP
004056E1   8BEC             MOV EBP,ESP
004056E3   56               PUSH ESI
004056E4   33C0             XOR EAX,EAX
004056E6   50               PUSH EAX
004056E7   50               PUSH EAX
004056E8   50               PUSH EAX
004056E9   50               PUSH EAX
004056EA   50               PUSH EAX
004056EB   50               PUSH EAX
004056EC   50               PUSH EAX
004056ED   50               PUSH EAX
004056EE   8B55 0C          MOV EDX,DWORD PTR SS:[EBP+C]
004056F1   8D49 00          LEA ECX,DWORD PTR DS:[ECX]
004056F4   8A02             /MOV AL,BYTE PTR DS:[EDX]
004056F6   0AC0             |OR AL,AL
004056F8   74 07            |JE SHORT app5win.00405701
004056FA   42               |INC EDX
004056FB   0FAB0424         |BTS DWORD PTR SS:[ESP],EAX
004056FF  ^EB F3            \JMP SHORT app5win.004056F4
00405701   8B75 08          MOV ESI,DWORD PTR SS:[EBP+8]
00405704   8A06             /MOV AL,BYTE PTR DS:[ESI]
00405706   0AC0             |OR AL,AL
00405708   74 0A            |JE SHORT app5win.00405714
0040570A   46               |INC ESI
0040570B   0FA30424         |BT DWORD PTR SS:[ESP],EAX
0040570F  ^73 F3            \JNB SHORT app5win.00405704
00405711   8D46 FF          LEA EAX,DWORD PTR DS:[ESI-1]
00405714   83C4 20          ADD ESP,20
00405717   5E               POP ESI
00405718   C9               LEAVE
00405719   C3               RETN
0040571A   CC               INT3
0040571B   CC               INT3
0040571C   CC               INT3
0040571D   CC               INT3
0040571E   CC               INT3
0040571F   CC               INT3
00405720   51               PUSH ECX
00405721   3D 00100000      CMP EAX,1000
00405726   8D4C24 08        LEA ECX,DWORD PTR SS:[ESP+8]
0040572A   72 14            JB SHORT app5win.00405740
0040572C   81E9 00100000    /SUB ECX,1000
00405732   2D 00100000      |SUB EAX,1000
00405737   8501             |TEST DWORD PTR DS:[ECX],EAX
00405739   3D 00100000      |CMP EAX,1000
0040573E  ^73 EC            \JNB SHORT app5win.0040572C
00405740   2BC8             SUB ECX,EAX
00405742   8BC4             MOV EAX,ESP
00405744   8501             TEST DWORD PTR DS:[ECX],EAX
00405746   8BE1             MOV ESP,ECX
00405748   8B08             MOV ECX,DWORD PTR DS:[EAX]
0040574A   8B40 04          MOV EAX,DWORD PTR DS:[EAX+4]
0040574D   50               PUSH EAX
0040574E   C3               RETN
0040574F   CC               INT3
00405750   55               PUSH EBP
00405751   8BEC             MOV EBP,ESP
00405753   57               PUSH EDI
00405754   56               PUSH ESI
00405755   53               PUSH EBX
00405756   8B75 0C          MOV ESI,DWORD PTR SS:[EBP+C]
00405759   8B7D 08          MOV EDI,DWORD PTR SS:[EBP+8]
0040575C   8D05 FC7E4000    LEA EAX,DWORD PTR DS:[407EFC]
00405762   8378 08 00       CMP DWORD PTR DS:[EAX+8],0
00405766   75 3B            JNZ SHORT app5win.004057A3
00405768   B0 FF            MOV AL,0FF
0040576A   8BFF             MOV EDI,EDI
0040576C   0AC0             OR AL,AL
0040576E   74 2E            JE SHORT app5win.0040579E
00405770   8A06             MOV AL,BYTE PTR DS:[ESI]
00405772   46               INC ESI
00405773   8A27             MOV AH,BYTE PTR DS:[EDI]
00405775   47               INC EDI
00405776   38C4             CMP AH,AL
00405778  ^74 F2            JE SHORT app5win.0040576C
0040577A   2C 41            SUB AL,41
0040577C   3C 1A            CMP AL,1A
0040577E   1AC9             SBB CL,CL
00405780   80E1 20          AND CL,20
00405783   02C1             ADD AL,CL
00405785   04 41            ADD AL,41
00405787   86E0             XCHG AL,AH
00405789   2C 41            SUB AL,41
0040578B   3C 1A            CMP AL,1A
0040578D   1AC9             SBB CL,CL
0040578F   80E1 20          AND CL,20
00405792   02C1             ADD AL,CL
00405794   04 41            ADD AL,41
00405796   38E0             CMP AL,AH
00405798  ^74 D2            JE SHORT app5win.0040576C
0040579A   1AC0             SBB AL,AL
0040579C   1C FF            SBB AL,0FF
0040579E   0FBEC0           MOVSX EAX,AL
004057A1   EB 78            JMP SHORT app5win.0040581B
004057A3   F0:FF05 64804000 LOCK INC DWORD PTR DS:[408064]           ; LOCK prefix
004057AA   833D 60804000 00 CMP DWORD PTR DS:[408060],0
004057B1   7F 04            JG SHORT app5win.004057B7
004057B3   6A 00            PUSH 0
004057B5   EB 15            JMP SHORT app5win.004057CC
004057B7   F0:FF0D 64804000 LOCK DEC DWORD PTR DS:[408064]           ; LOCK prefix
004057BE   6A 13            PUSH 13
004057C0   E8 F9D7FFFF      CALL app5win.00402FBE
004057C5   C70424 01000000  MOV DWORD PTR SS:[ESP],1
004057CC   B8 FF000000      MOV EAX,0FF
004057D1   33DB             XOR EBX,EBX
004057D3   90               NOP
004057D4   0AC0             OR AL,AL
004057D6   74 27            JE SHORT app5win.004057FF
004057D8   8A06             MOV AL,BYTE PTR DS:[ESI]
004057DA   46               INC ESI
004057DB   8A1F             MOV BL,BYTE PTR DS:[EDI]
004057DD   47               INC EDI
004057DE   38D8             CMP AL,BL
004057E0  ^74 F2            JE SHORT app5win.004057D4
004057E2   50               PUSH EAX
004057E3   53               PUSH EBX
004057E4   E8 AD010000      CALL app5win.00405996
004057E9   8BD8             MOV EBX,EAX
004057EB   83C4 04          ADD ESP,4
004057EE   E8 A3010000      CALL app5win.00405996
004057F3   83C4 04          ADD ESP,4
004057F6   38C3             CMP BL,AL
004057F8  ^74 DA            JE SHORT app5win.004057D4
004057FA   1BC0             SBB EAX,EAX
004057FC   83D8 FF          SBB EAX,-1
004057FF   8BD8             MOV EBX,EAX
00405801   58               POP EAX
00405802   0BC0             OR EAX,EAX
00405804   75 09            JNZ SHORT app5win.0040580F
00405806   F0:FF0D 64804000 LOCK DEC DWORD PTR DS:[408064]           ; LOCK prefix
0040580D   EB 0A            JMP SHORT app5win.00405819
0040580F   6A 13            PUSH 13
00405811   E8 09D8FFFF      CALL app5win.0040301F
00405816   83C4 04          ADD ESP,4
00405819   8BC3             MOV EAX,EBX
0040581B   5B               POP EBX
0040581C   5E               POP ESI
0040581D   5F               POP EDI
0040581E   C9               LEAVE
0040581F   C3               RETN
00405820   55               PUSH EBP
00405821   8BEC             MOV EBP,ESP
00405823   57               PUSH EDI
00405824   56               PUSH ESI
00405825   53               PUSH EBX
00405826   8B4D 10          MOV ECX,DWORD PTR SS:[EBP+10]
00405829   0BC9             OR ECX,ECX
0040582B   0F84 E9000000    JE app5win.0040591A
00405831   8B75 08          MOV ESI,DWORD PTR SS:[EBP+8]
00405834   8B7D 0C          MOV EDI,DWORD PTR SS:[EBP+C]
00405837   8D05 FC7E4000    LEA EAX,DWORD PTR DS:[407EFC]
0040583D   8378 08 00       CMP DWORD PTR DS:[EAX+8],0
00405841   75 4E            JNZ SHORT app5win.00405891
00405843   B7 41            MOV BH,41
00405845   B3 5A            MOV BL,5A
00405847   B6 20            MOV DH,20
00405849   8D49 00          LEA ECX,DWORD PTR DS:[ECX]
0040584C   8A26             MOV AH,BYTE PTR DS:[ESI]
0040584E   0AE4             OR AH,AH
00405850   8A07             MOV AL,BYTE PTR DS:[EDI]
00405852   74 21            JE SHORT app5win.00405875
00405854   0AC0             OR AL,AL
00405856   74 1D            JE SHORT app5win.00405875
00405858   46               INC ESI
00405859   47               INC EDI
0040585A   38FC             CMP AH,BH
0040585C   72 06            JB SHORT app5win.00405864
0040585E   38DC             CMP AH,BL
00405860   77 02            JA SHORT app5win.00405864
00405862   02E6             ADD AH,DH
00405864   38F8             CMP AL,BH
00405866   72 06            JB SHORT app5win.0040586E
00405868   38D8             CMP AL,BL
0040586A   77 02            JA SHORT app5win.0040586E
0040586C   02C6             ADD AL,DH
0040586E   38C4             CMP AH,AL
00405870   75 0D            JNZ SHORT app5win.0040587F
00405872   49               DEC ECX
00405873  ^75 D7            JNZ SHORT app5win.0040584C
00405875   33C9             XOR ECX,ECX
00405877   38C4             CMP AH,AL
00405879   0F84 9B000000    JE app5win.0040591A
0040587F   B9 FFFFFFFF      MOV ECX,-1
00405884   0F82 90000000    JB app5win.0040591A
0040588A   F7D9             NEG ECX
0040588C   E9 89000000      JMP app5win.0040591A
00405891   F0:FF05 64804000 LOCK INC DWORD PTR DS:[408064]           ; LOCK prefix
00405898   833D 60804000 00 CMP DWORD PTR DS:[408060],0
0040589F   7F 04            JG SHORT app5win.004058A5
004058A1   6A 00            PUSH 0
004058A3   EB 19            JMP SHORT app5win.004058BE
004058A5   F0:FF0D 64804000 LOCK DEC DWORD PTR DS:[408064]           ; LOCK prefix
004058AC   8BD9             MOV EBX,ECX
004058AE   6A 13            PUSH 13
004058B0   E8 09D7FFFF      CALL app5win.00402FBE
004058B5   C70424 01000000  MOV DWORD PTR SS:[ESP],1
004058BC   8BCB             MOV ECX,EBX
004058BE   33C0             XOR EAX,EAX
004058C0   33DB             XOR EBX,EBX
004058C2   8BFF             MOV EDI,EDI
004058C4   8A06             MOV AL,BYTE PTR DS:[ESI]
004058C6   0BC0             OR EAX,EAX
004058C8   8A1F             MOV BL,BYTE PTR DS:[EDI]
004058CA   74 23            JE SHORT app5win.004058EF
004058CC   0BDB             OR EBX,EBX
004058CE   74 1F            JE SHORT app5win.004058EF
004058D0   46               INC ESI
004058D1   47               INC EDI
004058D2   51               PUSH ECX
004058D3   50               PUSH EAX
004058D4   53               PUSH EBX
004058D5   E8 BC000000      CALL app5win.00405996
004058DA   8BD8             MOV EBX,EAX
004058DC   83C4 04          ADD ESP,4
004058DF   E8 B2000000      CALL app5win.00405996
004058E4   83C4 04          ADD ESP,4
004058E7   59               POP ECX
004058E8   3BC3             CMP EAX,EBX
004058EA   75 09            JNZ SHORT app5win.004058F5
004058EC   49               DEC ECX
004058ED  ^75 D5            JNZ SHORT app5win.004058C4
004058EF   33C9             XOR ECX,ECX
004058F1   3BC3             CMP EAX,EBX
004058F3   74 09            JE SHORT app5win.004058FE
004058F5   B9 FFFFFFFF      MOV ECX,-1
004058FA   72 02            JB SHORT app5win.004058FE
004058FC   F7D9             NEG ECX
004058FE   58               POP EAX
004058FF   0BC0             OR EAX,EAX
00405901   75 09            JNZ SHORT app5win.0040590C
00405903   F0:FF0D 64804000 LOCK DEC DWORD PTR DS:[408064]           ; LOCK prefix
0040590A   EB 0E            JMP SHORT app5win.0040591A
0040590C   8BD9             MOV EBX,ECX
0040590E   6A 13            PUSH 13
00405910   E8 0AD7FFFF      CALL app5win.0040301F
00405915   83C4 04          ADD ESP,4
00405918   8BCB             MOV ECX,EBX
0040591A   8BC1             MOV EAX,ECX
0040591C   5B               POP EBX
0040591D   5E               POP ESI
0040591E   5F               POP EDI
0040591F   C9               LEAVE
00405920   C3               RETN
00405921   55               PUSH EBP
00405922   8BEC             MOV EBP,ESP
00405924   51               PUSH ECX
00405925   8B45 08          MOV EAX,DWORD PTR SS:[EBP+8]
00405928   8D48 01          LEA ECX,DWORD PTR DS:[EAX+1]
0040592B   81F9 00010000    CMP ECX,100
00405931   77 0C            JA SHORT app5win.0040593F
00405933   8B0D 40754000    MOV ECX,DWORD PTR DS:[407540]            ; app5win.0040754A
00405939   0FB70441         MOVZX EAX,WORD PTR DS:[ECX+EAX*2]
0040593D   EB 52            JMP SHORT app5win.00405991
0040593F   8BC8             MOV ECX,EAX
00405941   56               PUSH ESI
00405942   8B35 40754000    MOV ESI,DWORD PTR DS:[407540]            ; app5win.0040754A
00405948   C1F9 08          SAR ECX,8
0040594B   0FB6D1           MOVZX EDX,CL
0040594E   F64456 01 80     TEST BYTE PTR DS:[ESI+EDX*2+1],80
00405953   5E               POP ESI
00405954   74 0E            JE SHORT app5win.00405964
00405956   8065 FE 00       AND BYTE PTR SS:[EBP-2],0
0040595A   884D FC          MOV BYTE PTR SS:[EBP-4],CL
0040595D   8845 FD          MOV BYTE PTR SS:[EBP-3],AL
00405960   6A 02            PUSH 2
00405962   EB 09            JMP SHORT app5win.0040596D
00405964   8065 FD 00       AND BYTE PTR SS:[EBP-3],0
00405968   8845 FC          MOV BYTE PTR SS:[EBP-4],AL
0040596B   6A 01            PUSH 1
0040596D   58               POP EAX
0040596E   8D4D 0A          LEA ECX,DWORD PTR SS:[EBP+A]
00405971   6A 01            PUSH 1
00405973   6A 00            PUSH 0
00405975   6A 00            PUSH 0
00405977   51               PUSH ECX
00405978   50               PUSH EAX
00405979   8D45 FC          LEA EAX,DWORD PTR SS:[EBP-4]
0040597C   50               PUSH EAX
0040597D   6A 01            PUSH 1
0040597F   E8 C2F6FFFF      CALL app5win.00405046
00405984   83C4 1C          ADD ESP,1C
00405987   85C0             TEST EAX,EAX
00405989   75 02            JNZ SHORT app5win.0040598D
0040598B   C9               LEAVE
0040598C   C3               RETN
0040598D   0FB745 0A        MOVZX EAX,WORD PTR SS:[EBP+A]
00405991   2345 0C          AND EAX,DWORD PTR SS:[EBP+C]
00405994   C9               LEAVE
00405995   C3               RETN
00405996   55               PUSH EBP
00405997   8BEC             MOV EBP,ESP
00405999   51               PUSH ECX
0040599A   833D 047F4000 00 CMP DWORD PTR DS:[407F04],0
004059A1   53               PUSH EBX
004059A2   56               PUSH ESI
004059A3   57               PUSH EDI
004059A4   75 1D            JNZ SHORT app5win.004059C3
004059A6   8B45 08          MOV EAX,DWORD PTR SS:[EBP+8]
004059A9   83F8 41          CMP EAX,41
004059AC   0F8C AA000000    JL app5win.00405A5C
004059B2   83F8 5A          CMP EAX,5A
004059B5   0F8F A1000000    JG app5win.00405A5C
004059BB   83C0 20          ADD EAX,20
004059BE   E9 99000000      JMP app5win.00405A5C
004059C3   8B5D 08          MOV EBX,DWORD PTR SS:[EBP+8]
004059C6   BF 00010000      MOV EDI,100
004059CB   6A 01            PUSH 1
004059CD   3BDF             CMP EBX,EDI
004059CF   5E               POP ESI
004059D0   7D 25            JGE SHORT app5win.004059F7
004059D2   3935 C87A4000    CMP DWORD PTR DS:[407AC8],ESI
004059D8   7E 0B            JLE SHORT app5win.004059E5
004059DA   56               PUSH ESI
004059DB   53               PUSH EBX
004059DC   E8 40FFFFFF      CALL app5win.00405921
004059E1   59               POP ECX
004059E2   59               POP ECX
004059E3   EB 0A            JMP SHORT app5win.004059EF
004059E5   A1 40754000      MOV EAX,DWORD PTR DS:[407540]
004059EA   8A0458           MOV AL,BYTE PTR DS:[EAX+EBX*2]
004059ED   23C6             AND EAX,ESI
004059EF   85C0             TEST EAX,EAX
004059F1   75 04            JNZ SHORT app5win.004059F7
004059F3   8BC3             MOV EAX,EBX
004059F5   EB 65            JMP SHORT app5win.00405A5C
004059F7   8B15 40754000    MOV EDX,DWORD PTR DS:[407540]            ; app5win.0040754A
004059FD   8BC3             MOV EAX,EBX
004059FF   C1F8 08          SAR EAX,8
00405A02   0FB6C8           MOVZX ECX,AL
00405A05   F6444A 01 80     TEST BYTE PTR DS:[EDX+ECX*2+1],80
00405A0A   74 0F            JE SHORT app5win.00405A1B
00405A0C   8065 0A 00       AND BYTE PTR SS:[EBP+A],0
00405A10   6A 02            PUSH 2
00405A12   8845 08          MOV BYTE PTR SS:[EBP+8],AL
00405A15   885D 09          MOV BYTE PTR SS:[EBP+9],BL
00405A18   58               POP EAX
00405A19   EB 09            JMP SHORT app5win.00405A24
00405A1B   8065 09 00       AND BYTE PTR SS:[EBP+9],0
00405A1F   885D 08          MOV BYTE PTR SS:[EBP+8],BL
00405A22   8BC6             MOV EAX,ESI
00405A24   56               PUSH ESI
00405A25   6A 00            PUSH 0
00405A27   8D4D FC          LEA ECX,DWORD PTR SS:[EBP-4]
00405A2A   6A 03            PUSH 3
00405A2C   51               PUSH ECX
00405A2D   50               PUSH EAX
00405A2E   8D45 08          LEA EAX,DWORD PTR SS:[EBP+8]
00405A31   50               PUSH EAX
00405A32   57               PUSH EDI
00405A33   FF35 047F4000    PUSH DWORD PTR DS:[407F04]
00405A39   E8 B9F3FFFF      CALL app5win.00404DF7
00405A3E   83C4 20          ADD ESP,20
00405A41   85C0             TEST EAX,EAX
00405A43  ^74 AE            JE SHORT app5win.004059F3
00405A45   3BC6             CMP EAX,ESI
00405A47   75 06            JNZ SHORT app5win.00405A4F
00405A49   0FB645 FC        MOVZX EAX,BYTE PTR SS:[EBP-4]
00405A4D   EB 0D            JMP SHORT app5win.00405A5C
00405A4F   0FB645 FD        MOVZX EAX,BYTE PTR SS:[EBP-3]
00405A53   0FB64D FC        MOVZX ECX,BYTE PTR SS:[EBP-4]
00405A57   C1E0 08          SHL EAX,8
00405A5A   0BC1             OR EAX,ECX
00405A5C   5F               POP EDI
00405A5D   5E               POP ESI
00405A5E   5B               POP EBX
00405A5F   C9               LEAVE
00405A60   C3               RETN
00405A61   CC               INT3
00405A62   CC               INT3
00405A63   CC               INT3
00405A64   CC               INT3
00405A65   CC               INT3
00405A66   CC               INT3
00405A67   CC               INT3
00405A68   CC               INT3
00405A69   CC               INT3
00405A6A   CC               INT3
00405A6B   CC               INT3
00405A6C   CC               INT3
00405A6D   CC               INT3
00405A6E   CC               INT3
00405A6F   CC               INT3
00405A70   8B4424 08        MOV EAX,DWORD PTR SS:[ESP+8]
00405A74   8B4C24 10        MOV ECX,DWORD PTR SS:[ESP+10]
00405A78   0BC8             OR ECX,EAX
00405A7A   8B4C24 0C        MOV ECX,DWORD PTR SS:[ESP+C]
00405A7E   75 09            JNZ SHORT app5win.00405A89
00405A80   8B4424 04        MOV EAX,DWORD PTR SS:[ESP+4]
00405A84   F7E1             MUL ECX
00405A86   C2 1000          RETN 10
00405A89   53               PUSH EBX
00405A8A   F7E1             MUL ECX
00405A8C   8BD8             MOV EBX,EAX
00405A8E   8B4424 08        MOV EAX,DWORD PTR SS:[ESP+8]
00405A92   F76424 14        MUL DWORD PTR SS:[ESP+14]
00405A96   03D8             ADD EBX,EAX
00405A98   8B4424 08        MOV EAX,DWORD PTR SS:[ESP+8]
00405A9C   F7E1             MUL ECX
00405A9E   03D3             ADD EDX,EBX
00405AA0   5B               POP EBX
00405AA1   C2 1000          RETN 10
00405AA4   CC               INT3
00405AA5   CC               INT3
00405AA6   CC               INT3
00405AA7   CC               INT3
00405AA8   CC               INT3
00405AA9   CC               INT3
00405AAA   CC               INT3
00405AAB   CC               INT3
00405AAC   CC               INT3
00405AAD   CC               INT3
00405AAE   CC               INT3
00405AAF   CC               INT3
00405AB0   8D42 FF          LEA EAX,DWORD PTR DS:[EDX-1]
00405AB3   5B               POP EBX
00405AB4   C3               RETN
00405AB5   8DA424 00000000  LEA ESP,DWORD PTR SS:[ESP]
00405ABC   8D6424 00        LEA ESP,DWORD PTR SS:[ESP]
00405AC0   33C0             XOR EAX,EAX
00405AC2   8A4424 08        MOV AL,BYTE PTR SS:[ESP+8]
00405AC6   53               PUSH EBX
00405AC7   8BD8             MOV EBX,EAX
00405AC9   C1E0 08          SHL EAX,8
00405ACC   8B5424 08        MOV EDX,DWORD PTR SS:[ESP+8]
00405AD0   F7C2 03000000    TEST EDX,3
00405AD6   74 13            JE SHORT app5win.00405AEB
00405AD8   8A0A             MOV CL,BYTE PTR DS:[EDX]
00405ADA   42               INC EDX
00405ADB   38D9             CMP CL,BL
00405ADD  ^74 D1            JE SHORT app5win.00405AB0
00405ADF   84C9             TEST CL,CL
00405AE1   74 51            JE SHORT app5win.00405B34
00405AE3   F7C2 03000000    TEST EDX,3
00405AE9  ^75 ED            JNZ SHORT app5win.00405AD8
00405AEB   0BD8             OR EBX,EAX
00405AED   57               PUSH EDI
00405AEE   8BC3             MOV EAX,EBX
00405AF0   C1E3 10          SHL EBX,10
00405AF3   56               PUSH ESI
00405AF4   0BD8             OR EBX,EAX
00405AF6   8B0A             MOV ECX,DWORD PTR DS:[EDX]
00405AF8   BF FFFEFE7E      MOV EDI,7EFEFEFF
00405AFD   8BC1             MOV EAX,ECX
00405AFF   8BF7             MOV ESI,EDI
00405B01   33CB             XOR ECX,EBX
00405B03   03F0             ADD ESI,EAX
00405B05   03F9             ADD EDI,ECX
00405B07   83F1 FF          XOR ECX,FFFFFFFF
00405B0A   83F0 FF          XOR EAX,FFFFFFFF
00405B0D   33CF             XOR ECX,EDI
00405B0F   33C6             XOR EAX,ESI
00405B11   83C2 04          ADD EDX,4
00405B14   81E1 00010181    AND ECX,81010100
00405B1A   75 1C            JNZ SHORT app5win.00405B38
00405B1C   25 00010181      AND EAX,81010100
00405B21  ^74 D3            JE SHORT app5win.00405AF6
00405B23   25 00010101      AND EAX,1010100
00405B28   75 08            JNZ SHORT app5win.00405B32
00405B2A   81E6 00000080    AND ESI,80000000
00405B30  ^75 C4            JNZ SHORT app5win.00405AF6
00405B32   5E               POP ESI
00405B33   5F               POP EDI
00405B34   5B               POP EBX
00405B35   33C0             XOR EAX,EAX
00405B37   C3               RETN
00405B38   8B42 FC          MOV EAX,DWORD PTR DS:[EDX-4]
00405B3B   38D8             CMP AL,BL
00405B3D   74 36            JE SHORT app5win.00405B75
00405B3F   84C0             TEST AL,AL
00405B41  ^74 EF            JE SHORT app5win.00405B32
00405B43   38DC             CMP AH,BL
00405B45   74 27            JE SHORT app5win.00405B6E
00405B47   84E4             TEST AH,AH
00405B49  ^74 E7            JE SHORT app5win.00405B32
00405B4B   C1E8 10          SHR EAX,10
00405B4E   38D8             CMP AL,BL
00405B50   74 15            JE SHORT app5win.00405B67
00405B52   84C0             TEST AL,AL
00405B54  ^74 DC            JE SHORT app5win.00405B32
00405B56   38DC             CMP AH,BL
00405B58   74 06            JE SHORT app5win.00405B60
00405B5A   84E4             TEST AH,AH
00405B5C  ^74 D4            JE SHORT app5win.00405B32
00405B5E  ^EB 96            JMP SHORT app5win.00405AF6
00405B60   5E               POP ESI
00405B61   5F               POP EDI
00405B62   8D42 FF          LEA EAX,DWORD PTR DS:[EDX-1]
00405B65   5B               POP EBX
00405B66   C3               RETN
00405B67   8D42 FE          LEA EAX,DWORD PTR DS:[EDX-2]
00405B6A   5E               POP ESI
00405B6B   5F               POP EDI
00405B6C   5B               POP EBX
00405B6D   C3               RETN
00405B6E   8D42 FD          LEA EAX,DWORD PTR DS:[EDX-3]
00405B71   5E               POP ESI
00405B72   5F               POP EDI
00405B73   5B               POP EBX
00405B74   C3               RETN
00405B75   8D42 FC          LEA EAX,DWORD PTR DS:[EDX-4]
00405B78   5E               POP ESI
00405B79   5F               POP EDI
00405B7A   5B               POP EBX
00405B7B   C3               RETN
00405B7C  -FF25 74604000    JMP DWORD PTR DS:[<&KERNEL32.RtlUnwind>] ; kernel32.RtlUnwind
00405B82   0000             ADD BYTE PTR DS:[EAX],AL
00405B84   0000             ADD BYTE PTR DS:[EAX],AL
00405B86   0000             ADD BYTE PTR DS:[EAX],AL
00405B88   0000             ADD BYTE PTR DS:[EAX],AL
00405B8A   0000             ADD BYTE PTR DS:[EAX],AL
00405B8C   0000             ADD BYTE PTR DS:[EAX],AL
00405B8E   0000             ADD BYTE PTR DS:[EAX],AL
00405B90   0000             ADD BYTE PTR DS:[EAX],AL
00405B92   0000             ADD BYTE PTR DS:[EAX],AL
00405B94   0000             ADD BYTE PTR DS:[EAX],AL
00405B96   0000             ADD BYTE PTR DS:[EAX],AL
00405B98   0000             ADD BYTE PTR DS:[EAX],AL
00405B9A   0000             ADD BYTE PTR DS:[EAX],AL
00405B9C   0000             ADD BYTE PTR DS:[EAX],AL
00405B9E   0000             ADD BYTE PTR DS:[EAX],AL
00405BA0   0000             ADD BYTE PTR DS:[EAX],AL
00405BA2   0000             ADD BYTE PTR DS:[EAX],AL
00405BA4   0000             ADD BYTE PTR DS:[EAX],AL
00405BA6   0000             ADD BYTE PTR DS:[EAX],AL
00405BA8   0000             ADD BYTE PTR DS:[EAX],AL
00405BAA   0000             ADD BYTE PTR DS:[EAX],AL
00405BAC   0000             ADD BYTE PTR DS:[EAX],AL
00405BAE   0000             ADD BYTE PTR DS:[EAX],AL
00405BB0   0000             ADD BYTE PTR DS:[EAX],AL
00405BB2   0000             ADD BYTE PTR DS:[EAX],AL
00405BB4   0000             ADD BYTE PTR DS:[EAX],AL
00405BB6   0000             ADD BYTE PTR DS:[EAX],AL
00405BB8   0000             ADD BYTE PTR DS:[EAX],AL
00405BBA   0000             ADD BYTE PTR DS:[EAX],AL
00405BBC   0000             ADD BYTE PTR DS:[EAX],AL
00405BBE   0000             ADD BYTE PTR DS:[EAX],AL
00405BC0   0000             ADD BYTE PTR DS:[EAX],AL
00405BC2   0000             ADD BYTE PTR DS:[EAX],AL
00405BC4   0000             ADD BYTE PTR DS:[EAX],AL
00405BC6   0000             ADD BYTE PTR DS:[EAX],AL
00405BC8   0000             ADD BYTE PTR DS:[EAX],AL
00405BCA   0000             ADD BYTE PTR DS:[EAX],AL
00405BCC   0000             ADD BYTE PTR DS:[EAX],AL
00405BCE   0000             ADD BYTE PTR DS:[EAX],AL
00405BD0   0000             ADD BYTE PTR DS:[EAX],AL
00405BD2   0000             ADD BYTE PTR DS:[EAX],AL
00405BD4   0000             ADD BYTE PTR DS:[EAX],AL
00405BD6   0000             ADD BYTE PTR DS:[EAX],AL
00405BD8   0000             ADD BYTE PTR DS:[EAX],AL
00405BDA   0000             ADD BYTE PTR DS:[EAX],AL
00405BDC   0000             ADD BYTE PTR DS:[EAX],AL
00405BDE   0000             ADD BYTE PTR DS:[EAX],AL
00405BE0   0000             ADD BYTE PTR DS:[EAX],AL
00405BE2   0000             ADD BYTE PTR DS:[EAX],AL
00405BE4   0000             ADD BYTE PTR DS:[EAX],AL
00405BE6   0000             ADD BYTE PTR DS:[EAX],AL
00405BE8   0000             ADD BYTE PTR DS:[EAX],AL
00405BEA   0000             ADD BYTE PTR DS:[EAX],AL
00405BEC   0000             ADD BYTE PTR DS:[EAX],AL
00405BEE   0000             ADD BYTE PTR DS:[EAX],AL
00405BF0   0000             ADD BYTE PTR DS:[EAX],AL
00405BF2   0000             ADD BYTE PTR DS:[EAX],AL
00405BF4   0000             ADD BYTE PTR DS:[EAX],AL
00405BF6   0000             ADD BYTE PTR DS:[EAX],AL
00405BF8   0000             ADD BYTE PTR DS:[EAX],AL
00405BFA   0000             ADD BYTE PTR DS:[EAX],AL
00405BFC   0000             ADD BYTE PTR DS:[EAX],AL
00405BFE   0000             ADD BYTE PTR DS:[EAX],AL
00405C00   0000             ADD BYTE PTR DS:[EAX],AL
00405C02   0000             ADD BYTE PTR DS:[EAX],AL
00405C04   0000             ADD BYTE PTR DS:[EAX],AL
00405C06   0000             ADD BYTE PTR DS:[EAX],AL
00405C08   0000             ADD BYTE PTR DS:[EAX],AL
00405C0A   0000             ADD BYTE PTR DS:[EAX],AL
00405C0C   0000             ADD BYTE PTR DS:[EAX],AL
00405C0E   0000             ADD BYTE PTR DS:[EAX],AL
00405C10   0000             ADD BYTE PTR DS:[EAX],AL
00405C12   0000             ADD BYTE PTR DS:[EAX],AL
00405C14   0000             ADD BYTE PTR DS:[EAX],AL
00405C16   0000             ADD BYTE PTR DS:[EAX],AL
00405C18   0000             ADD BYTE PTR DS:[EAX],AL
00405C1A   0000             ADD BYTE PTR DS:[EAX],AL
00405C1C   0000             ADD BYTE PTR DS:[EAX],AL
00405C1E   0000             ADD BYTE PTR DS:[EAX],AL
00405C20   0000             ADD BYTE PTR DS:[EAX],AL
00405C22   0000             ADD BYTE PTR DS:[EAX],AL
00405C24   0000             ADD BYTE PTR DS:[EAX],AL
00405C26   0000             ADD BYTE PTR DS:[EAX],AL
00405C28   0000             ADD BYTE PTR DS:[EAX],AL
00405C2A   0000             ADD BYTE PTR DS:[EAX],AL
00405C2C   0000             ADD BYTE PTR DS:[EAX],AL
00405C2E   0000             ADD BYTE PTR DS:[EAX],AL
00405C30   0000             ADD BYTE PTR DS:[EAX],AL
00405C32   0000             ADD BYTE PTR DS:[EAX],AL
00405C34   0000             ADD BYTE PTR DS:[EAX],AL
00405C36   0000             ADD BYTE PTR DS:[EAX],AL
00405C38   0000             ADD BYTE PTR DS:[EAX],AL
00405C3A   0000             ADD BYTE PTR DS:[EAX],AL
00405C3C   0000             ADD BYTE PTR DS:[EAX],AL
00405C3E   0000             ADD BYTE PTR DS:[EAX],AL
00405C40   0000             ADD BYTE PTR DS:[EAX],AL
00405C42   0000             ADD BYTE PTR DS:[EAX],AL
00405C44   0000             ADD BYTE PTR DS:[EAX],AL
00405C46   0000             ADD BYTE PTR DS:[EAX],AL
00405C48   0000             ADD BYTE PTR DS:[EAX],AL
00405C4A   0000             ADD BYTE PTR DS:[EAX],AL
00405C4C   0000             ADD BYTE PTR DS:[EAX],AL
00405C4E   0000             ADD BYTE PTR DS:[EAX],AL
00405C50   0000             ADD BYTE PTR DS:[EAX],AL
00405C52   0000             ADD BYTE PTR DS:[EAX],AL
00405C54   0000             ADD BYTE PTR DS:[EAX],AL
00405C56   0000             ADD BYTE PTR DS:[EAX],AL
00405C58   0000             ADD BYTE PTR DS:[EAX],AL
00405C5A   0000             ADD BYTE PTR DS:[EAX],AL
00405C5C   0000             ADD BYTE PTR DS:[EAX],AL
00405C5E   0000             ADD BYTE PTR DS:[EAX],AL
00405C60   0000             ADD BYTE PTR DS:[EAX],AL
00405C62   0000             ADD BYTE PTR DS:[EAX],AL
00405C64   0000             ADD BYTE PTR DS:[EAX],AL
00405C66   0000             ADD BYTE PTR DS:[EAX],AL
00405C68   0000             ADD BYTE PTR DS:[EAX],AL
00405C6A   0000             ADD BYTE PTR DS:[EAX],AL
00405C6C   0000             ADD BYTE PTR DS:[EAX],AL
00405C6E   0000             ADD BYTE PTR DS:[EAX],AL
00405C70   0000             ADD BYTE PTR DS:[EAX],AL
00405C72   0000             ADD BYTE PTR DS:[EAX],AL
00405C74   0000             ADD BYTE PTR DS:[EAX],AL
00405C76   0000             ADD BYTE PTR DS:[EAX],AL
00405C78   0000             ADD BYTE PTR DS:[EAX],AL
00405C7A   0000             ADD BYTE PTR DS:[EAX],AL
00405C7C   0000             ADD BYTE PTR DS:[EAX],AL
00405C7E   0000             ADD BYTE PTR DS:[EAX],AL
00405C80   0000             ADD BYTE PTR DS:[EAX],AL
00405C82   0000             ADD BYTE PTR DS:[EAX],AL
00405C84   0000             ADD BYTE PTR DS:[EAX],AL
00405C86   0000             ADD BYTE PTR DS:[EAX],AL
00405C88   0000             ADD BYTE PTR DS:[EAX],AL
00405C8A   0000             ADD BYTE PTR DS:[EAX],AL
00405C8C   0000             ADD BYTE PTR DS:[EAX],AL
00405C8E   0000             ADD BYTE PTR DS:[EAX],AL
00405C90   0000             ADD BYTE PTR DS:[EAX],AL
00405C92   0000             ADD BYTE PTR DS:[EAX],AL
00405C94   0000             ADD BYTE PTR DS:[EAX],AL
00405C96   0000             ADD BYTE PTR DS:[EAX],AL
00405C98   0000             ADD BYTE PTR DS:[EAX],AL
00405C9A   0000             ADD BYTE PTR DS:[EAX],AL
00405C9C   0000             ADD BYTE PTR DS:[EAX],AL
00405C9E   0000             ADD BYTE PTR DS:[EAX],AL
00405CA0   0000             ADD BYTE PTR DS:[EAX],AL
00405CA2   0000             ADD BYTE PTR DS:[EAX],AL
00405CA4   0000             ADD BYTE PTR DS:[EAX],AL
00405CA6   0000             ADD BYTE PTR DS:[EAX],AL
00405CA8   0000             ADD BYTE PTR DS:[EAX],AL
00405CAA   0000             ADD BYTE PTR DS:[EAX],AL
00405CAC   0000             ADD BYTE PTR DS:[EAX],AL
00405CAE   0000             ADD BYTE PTR DS:[EAX],AL
00405CB0   0000             ADD BYTE PTR DS:[EAX],AL
00405CB2   0000             ADD BYTE PTR DS:[EAX],AL
00405CB4   0000             ADD BYTE PTR DS:[EAX],AL
00405CB6   0000             ADD BYTE PTR DS:[EAX],AL
00405CB8   0000             ADD BYTE PTR DS:[EAX],AL
00405CBA   0000             ADD BYTE PTR DS:[EAX],AL
00405CBC   0000             ADD BYTE PTR DS:[EAX],AL
00405CBE   0000             ADD BYTE PTR DS:[EAX],AL
00405CC0   0000             ADD BYTE PTR DS:[EAX],AL
00405CC2   0000             ADD BYTE PTR DS:[EAX],AL
00405CC4   0000             ADD BYTE PTR DS:[EAX],AL
00405CC6   0000             ADD BYTE PTR DS:[EAX],AL
00405CC8   0000             ADD BYTE PTR DS:[EAX],AL
00405CCA   0000             ADD BYTE PTR DS:[EAX],AL
00405CCC   0000             ADD BYTE PTR DS:[EAX],AL
00405CCE   0000             ADD BYTE PTR DS:[EAX],AL
00405CD0   0000             ADD BYTE PTR DS:[EAX],AL
00405CD2   0000             ADD BYTE PTR DS:[EAX],AL
00405CD4   0000             ADD BYTE PTR DS:[EAX],AL
00405CD6   0000             ADD BYTE PTR DS:[EAX],AL
00405CD8   0000             ADD BYTE PTR DS:[EAX],AL
00405CDA   0000             ADD BYTE PTR DS:[EAX],AL
00405CDC   0000             ADD BYTE PTR DS:[EAX],AL
00405CDE   0000             ADD BYTE PTR DS:[EAX],AL
00405CE0   0000             ADD BYTE PTR DS:[EAX],AL
00405CE2   0000             ADD BYTE PTR DS:[EAX],AL
00405CE4   0000             ADD BYTE PTR DS:[EAX],AL
00405CE6   0000             ADD BYTE PTR DS:[EAX],AL
00405CE8   0000             ADD BYTE PTR DS:[EAX],AL
00405CEA   0000             ADD BYTE PTR DS:[EAX],AL
00405CEC   0000             ADD BYTE PTR DS:[EAX],AL
00405CEE   0000             ADD BYTE PTR DS:[EAX],AL
00405CF0   0000             ADD BYTE PTR DS:[EAX],AL
00405CF2   0000             ADD BYTE PTR DS:[EAX],AL
00405CF4   0000             ADD BYTE PTR DS:[EAX],AL
00405CF6   0000             ADD BYTE PTR DS:[EAX],AL
00405CF8   0000             ADD BYTE PTR DS:[EAX],AL
00405CFA   0000             ADD BYTE PTR DS:[EAX],AL
00405CFC   0000             ADD BYTE PTR DS:[EAX],AL
00405CFE   0000             ADD BYTE PTR DS:[EAX],AL
00405D00   0000             ADD BYTE PTR DS:[EAX],AL
00405D02   0000             ADD BYTE PTR DS:[EAX],AL
00405D04   0000             ADD BYTE PTR DS:[EAX],AL
00405D06   0000             ADD BYTE PTR DS:[EAX],AL
00405D08   0000             ADD BYTE PTR DS:[EAX],AL
00405D0A   0000             ADD BYTE PTR DS:[EAX],AL
00405D0C   0000             ADD BYTE PTR DS:[EAX],AL
00405D0E   0000             ADD BYTE PTR DS:[EAX],AL
00405D10   0000             ADD BYTE PTR DS:[EAX],AL
00405D12   0000             ADD BYTE PTR DS:[EAX],AL
00405D14   0000             ADD BYTE PTR DS:[EAX],AL
00405D16   0000             ADD BYTE PTR DS:[EAX],AL
00405D18   0000             ADD BYTE PTR DS:[EAX],AL
00405D1A   0000             ADD BYTE PTR DS:[EAX],AL
00405D1C   0000             ADD BYTE PTR DS:[EAX],AL
00405D1E   0000             ADD BYTE PTR DS:[EAX],AL
00405D20   0000             ADD BYTE PTR DS:[EAX],AL
00405D22   0000             ADD BYTE PTR DS:[EAX],AL
00405D24   0000             ADD BYTE PTR DS:[EAX],AL
00405D26   0000             ADD BYTE PTR DS:[EAX],AL
00405D28   0000             ADD BYTE PTR DS:[EAX],AL
00405D2A   0000             ADD BYTE PTR DS:[EAX],AL
00405D2C   0000             ADD BYTE PTR DS:[EAX],AL
00405D2E   0000             ADD BYTE PTR DS:[EAX],AL
00405D30   0000             ADD BYTE PTR DS:[EAX],AL
00405D32   0000             ADD BYTE PTR DS:[EAX],AL
00405D34   0000             ADD BYTE PTR DS:[EAX],AL
00405D36   0000             ADD BYTE PTR DS:[EAX],AL
00405D38   0000             ADD BYTE PTR DS:[EAX],AL
00405D3A   0000             ADD BYTE PTR DS:[EAX],AL
00405D3C   0000             ADD BYTE PTR DS:[EAX],AL
00405D3E   0000             ADD BYTE PTR DS:[EAX],AL
00405D40   0000             ADD BYTE PTR DS:[EAX],AL
00405D42   0000             ADD BYTE PTR DS:[EAX],AL
00405D44   0000             ADD BYTE PTR DS:[EAX],AL
00405D46   0000             ADD BYTE PTR DS:[EAX],AL
00405D48   0000             ADD BYTE PTR DS:[EAX],AL
00405D4A   0000             ADD BYTE PTR DS:[EAX],AL
00405D4C   0000             ADD BYTE PTR DS:[EAX],AL
00405D4E   0000             ADD BYTE PTR DS:[EAX],AL
00405D50   0000             ADD BYTE PTR DS:[EAX],AL
00405D52   0000             ADD BYTE PTR DS:[EAX],AL
00405D54   0000             ADD BYTE PTR DS:[EAX],AL
00405D56   0000             ADD BYTE PTR DS:[EAX],AL
00405D58   0000             ADD BYTE PTR DS:[EAX],AL
00405D5A   0000             ADD BYTE PTR DS:[EAX],AL
00405D5C   0000             ADD BYTE PTR DS:[EAX],AL
00405D5E   0000             ADD BYTE PTR DS:[EAX],AL
00405D60   0000             ADD BYTE PTR DS:[EAX],AL
00405D62   0000             ADD BYTE PTR DS:[EAX],AL
00405D64   0000             ADD BYTE PTR DS:[EAX],AL
00405D66   0000             ADD BYTE PTR DS:[EAX],AL
00405D68   0000             ADD BYTE PTR DS:[EAX],AL
00405D6A   0000             ADD BYTE PTR DS:[EAX],AL
00405D6C   0000             ADD BYTE PTR DS:[EAX],AL
00405D6E   0000             ADD BYTE PTR DS:[EAX],AL
00405D70   0000             ADD BYTE PTR DS:[EAX],AL
00405D72   0000             ADD BYTE PTR DS:[EAX],AL
00405D74   0000             ADD BYTE PTR DS:[EAX],AL
00405D76   0000             ADD BYTE PTR DS:[EAX],AL
00405D78   0000             ADD BYTE PTR DS:[EAX],AL
00405D7A   0000             ADD BYTE PTR DS:[EAX],AL
00405D7C   0000             ADD BYTE PTR DS:[EAX],AL
00405D7E   0000             ADD BYTE PTR DS:[EAX],AL
00405D80   0000             ADD BYTE PTR DS:[EAX],AL
00405D82   0000             ADD BYTE PTR DS:[EAX],AL
00405D84   0000             ADD BYTE PTR DS:[EAX],AL
00405D86   0000             ADD BYTE PTR DS:[EAX],AL
00405D88   0000             ADD BYTE PTR DS:[EAX],AL
00405D8A   0000             ADD BYTE PTR DS:[EAX],AL
00405D8C   0000             ADD BYTE PTR DS:[EAX],AL
00405D8E   0000             ADD BYTE PTR DS:[EAX],AL
00405D90   0000             ADD BYTE PTR DS:[EAX],AL
00405D92   0000             ADD BYTE PTR DS:[EAX],AL
00405D94   0000             ADD BYTE PTR DS:[EAX],AL
00405D96   0000             ADD BYTE PTR DS:[EAX],AL
00405D98   0000             ADD BYTE PTR DS:[EAX],AL
00405D9A   0000             ADD BYTE PTR DS:[EAX],AL
00405D9C   0000             ADD BYTE PTR DS:[EAX],AL
00405D9E   0000             ADD BYTE PTR DS:[EAX],AL
00405DA0   0000             ADD BYTE PTR DS:[EAX],AL
00405DA2   0000             ADD BYTE PTR DS:[EAX],AL
00405DA4   0000             ADD BYTE PTR DS:[EAX],AL
00405DA6   0000             ADD BYTE PTR DS:[EAX],AL
00405DA8   0000             ADD BYTE PTR DS:[EAX],AL
00405DAA   0000             ADD BYTE PTR DS:[EAX],AL
00405DAC   0000             ADD BYTE PTR DS:[EAX],AL
00405DAE   0000             ADD BYTE PTR DS:[EAX],AL
00405DB0   0000             ADD BYTE PTR DS:[EAX],AL
00405DB2   0000             ADD BYTE PTR DS:[EAX],AL
00405DB4   0000             ADD BYTE PTR DS:[EAX],AL
00405DB6   0000             ADD BYTE PTR DS:[EAX],AL
00405DB8   0000             ADD BYTE PTR DS:[EAX],AL
00405DBA   0000             ADD BYTE PTR DS:[EAX],AL
00405DBC   0000             ADD BYTE PTR DS:[EAX],AL
00405DBE   0000             ADD BYTE PTR DS:[EAX],AL
00405DC0   0000             ADD BYTE PTR DS:[EAX],AL
00405DC2   0000             ADD BYTE PTR DS:[EAX],AL
00405DC4   0000             ADD BYTE PTR DS:[EAX],AL
00405DC6   0000             ADD BYTE PTR DS:[EAX],AL
00405DC8   0000             ADD BYTE PTR DS:[EAX],AL
00405DCA   0000             ADD BYTE PTR DS:[EAX],AL
00405DCC   0000             ADD BYTE PTR DS:[EAX],AL
00405DCE   0000             ADD BYTE PTR DS:[EAX],AL
00405DD0   0000             ADD BYTE PTR DS:[EAX],AL
00405DD2   0000             ADD BYTE PTR DS:[EAX],AL
00405DD4   0000             ADD BYTE PTR DS:[EAX],AL
00405DD6   0000             ADD BYTE PTR DS:[EAX],AL
00405DD8   0000             ADD BYTE PTR DS:[EAX],AL
00405DDA   0000             ADD BYTE PTR DS:[EAX],AL
00405DDC   0000             ADD BYTE PTR DS:[EAX],AL
00405DDE   0000             ADD BYTE PTR DS:[EAX],AL
00405DE0   0000             ADD BYTE PTR DS:[EAX],AL
00405DE2   0000             ADD BYTE PTR DS:[EAX],AL
00405DE4   0000             ADD BYTE PTR DS:[EAX],AL
00405DE6   0000             ADD BYTE PTR DS:[EAX],AL
00405DE8   0000             ADD BYTE PTR DS:[EAX],AL
00405DEA   0000             ADD BYTE PTR DS:[EAX],AL
00405DEC   0000             ADD BYTE PTR DS:[EAX],AL
00405DEE   0000             ADD BYTE PTR DS:[EAX],AL
00405DF0   0000             ADD BYTE PTR DS:[EAX],AL
00405DF2   0000             ADD BYTE PTR DS:[EAX],AL
00405DF4   0000             ADD BYTE PTR DS:[EAX],AL
00405DF6   0000             ADD BYTE PTR DS:[EAX],AL
00405DF8   0000             ADD BYTE PTR DS:[EAX],AL
00405DFA   0000             ADD BYTE PTR DS:[EAX],AL
00405DFC   0000             ADD BYTE PTR DS:[EAX],AL
00405DFE   0000             ADD BYTE PTR DS:[EAX],AL
00405E00   0000             ADD BYTE PTR DS:[EAX],AL
00405E02   0000             ADD BYTE PTR DS:[EAX],AL
00405E04   0000             ADD BYTE PTR DS:[EAX],AL
00405E06   0000             ADD BYTE PTR DS:[EAX],AL
00405E08   0000             ADD BYTE PTR DS:[EAX],AL
00405E0A   0000             ADD BYTE PTR DS:[EAX],AL
00405E0C   0000             ADD BYTE PTR DS:[EAX],AL
00405E0E   0000             ADD BYTE PTR DS:[EAX],AL
00405E10   0000             ADD BYTE PTR DS:[EAX],AL
00405E12   0000             ADD BYTE PTR DS:[EAX],AL
00405E14   0000             ADD BYTE PTR DS:[EAX],AL
00405E16   0000             ADD BYTE PTR DS:[EAX],AL
00405E18   0000             ADD BYTE PTR DS:[EAX],AL
00405E1A   0000             ADD BYTE PTR DS:[EAX],AL
00405E1C   0000             ADD BYTE PTR DS:[EAX],AL
00405E1E   0000             ADD BYTE PTR DS:[EAX],AL
00405E20   0000             ADD BYTE PTR DS:[EAX],AL
00405E22   0000             ADD BYTE PTR DS:[EAX],AL
00405E24   0000             ADD BYTE PTR DS:[EAX],AL
00405E26   0000             ADD BYTE PTR DS:[EAX],AL
00405E28   0000             ADD BYTE PTR DS:[EAX],AL
00405E2A   0000             ADD BYTE PTR DS:[EAX],AL
00405E2C   0000             ADD BYTE PTR DS:[EAX],AL
00405E2E   0000             ADD BYTE PTR DS:[EAX],AL
00405E30   0000             ADD BYTE PTR DS:[EAX],AL
00405E32   0000             ADD BYTE PTR DS:[EAX],AL
00405E34   0000             ADD BYTE PTR DS:[EAX],AL
00405E36   0000             ADD BYTE PTR DS:[EAX],AL
00405E38   0000             ADD BYTE PTR DS:[EAX],AL
00405E3A   0000             ADD BYTE PTR DS:[EAX],AL
00405E3C   0000             ADD BYTE PTR DS:[EAX],AL
00405E3E   0000             ADD BYTE PTR DS:[EAX],AL
00405E40   0000             ADD BYTE PTR DS:[EAX],AL
00405E42   0000             ADD BYTE PTR DS:[EAX],AL
00405E44   0000             ADD BYTE PTR DS:[EAX],AL
00405E46   0000             ADD BYTE PTR DS:[EAX],AL
00405E48   0000             ADD BYTE PTR DS:[EAX],AL
00405E4A   0000             ADD BYTE PTR DS:[EAX],AL
00405E4C   0000             ADD BYTE PTR DS:[EAX],AL
00405E4E   0000             ADD BYTE PTR DS:[EAX],AL
00405E50   0000             ADD BYTE PTR DS:[EAX],AL
00405E52   0000             ADD BYTE PTR DS:[EAX],AL
00405E54   0000             ADD BYTE PTR DS:[EAX],AL
00405E56   0000             ADD BYTE PTR DS:[EAX],AL
00405E58   0000             ADD BYTE PTR DS:[EAX],AL
00405E5A   0000             ADD BYTE PTR DS:[EAX],AL
00405E5C   0000             ADD BYTE PTR DS:[EAX],AL
00405E5E   0000             ADD BYTE PTR DS:[EAX],AL
00405E60   0000             ADD BYTE PTR DS:[EAX],AL
00405E62   0000             ADD BYTE PTR DS:[EAX],AL
00405E64   0000             ADD BYTE PTR DS:[EAX],AL
00405E66   0000             ADD BYTE PTR DS:[EAX],AL
00405E68   0000             ADD BYTE PTR DS:[EAX],AL
00405E6A   0000             ADD BYTE PTR DS:[EAX],AL
00405E6C   0000             ADD BYTE PTR DS:[EAX],AL
00405E6E   0000             ADD BYTE PTR DS:[EAX],AL
00405E70   0000             ADD BYTE PTR DS:[EAX],AL
00405E72   0000             ADD BYTE PTR DS:[EAX],AL
00405E74   0000             ADD BYTE PTR DS:[EAX],AL
00405E76   0000             ADD BYTE PTR DS:[EAX],AL
00405E78   0000             ADD BYTE PTR DS:[EAX],AL
00405E7A   0000             ADD BYTE PTR DS:[EAX],AL
00405E7C   0000             ADD BYTE PTR DS:[EAX],AL
00405E7E   0000             ADD BYTE PTR DS:[EAX],AL
00405E80   0000             ADD BYTE PTR DS:[EAX],AL
00405E82   0000             ADD BYTE PTR DS:[EAX],AL
00405E84   0000             ADD BYTE PTR DS:[EAX],AL
00405E86   0000             ADD BYTE PTR DS:[EAX],AL
00405E88   0000             ADD BYTE PTR DS:[EAX],AL
00405E8A   0000             ADD BYTE PTR DS:[EAX],AL
00405E8C   0000             ADD BYTE PTR DS:[EAX],AL
00405E8E   0000             ADD BYTE PTR DS:[EAX],AL
00405E90   0000             ADD BYTE PTR DS:[EAX],AL
00405E92   0000             ADD BYTE PTR DS:[EAX],AL
00405E94   0000             ADD BYTE PTR DS:[EAX],AL
00405E96   0000             ADD BYTE PTR DS:[EAX],AL
00405E98   0000             ADD BYTE PTR DS:[EAX],AL
00405E9A   0000             ADD BYTE PTR DS:[EAX],AL
00405E9C   0000             ADD BYTE PTR DS:[EAX],AL
00405E9E   0000             ADD BYTE PTR DS:[EAX],AL
00405EA0   0000             ADD BYTE PTR DS:[EAX],AL
00405EA2   0000             ADD BYTE PTR DS:[EAX],AL
00405EA4   0000             ADD BYTE PTR DS:[EAX],AL
00405EA6   0000             ADD BYTE PTR DS:[EAX],AL
00405EA8   0000             ADD BYTE PTR DS:[EAX],AL
00405EAA   0000             ADD BYTE PTR DS:[EAX],AL
00405EAC   0000             ADD BYTE PTR DS:[EAX],AL
00405EAE   0000             ADD BYTE PTR DS:[EAX],AL
00405EB0   0000             ADD BYTE PTR DS:[EAX],AL
00405EB2   0000             ADD BYTE PTR DS:[EAX],AL
00405EB4   0000             ADD BYTE PTR DS:[EAX],AL
00405EB6   0000             ADD BYTE PTR DS:[EAX],AL
00405EB8   0000             ADD BYTE PTR DS:[EAX],AL
00405EBA   0000             ADD BYTE PTR DS:[EAX],AL
00405EBC   0000             ADD BYTE PTR DS:[EAX],AL
00405EBE   0000             ADD BYTE PTR DS:[EAX],AL
00405EC0   0000             ADD BYTE PTR DS:[EAX],AL
00405EC2   0000             ADD BYTE PTR DS:[EAX],AL
00405EC4   0000             ADD BYTE PTR DS:[EAX],AL
00405EC6   0000             ADD BYTE PTR DS:[EAX],AL
00405EC8   0000             ADD BYTE PTR DS:[EAX],AL
00405ECA   0000             ADD BYTE PTR DS:[EAX],AL
00405ECC   0000             ADD BYTE PTR DS:[EAX],AL
00405ECE   0000             ADD BYTE PTR DS:[EAX],AL
00405ED0   0000             ADD BYTE PTR DS:[EAX],AL
00405ED2   0000             ADD BYTE PTR DS:[EAX],AL
00405ED4   0000             ADD BYTE PTR DS:[EAX],AL
00405ED6   0000             ADD BYTE PTR DS:[EAX],AL
00405ED8   0000             ADD BYTE PTR DS:[EAX],AL
00405EDA   0000             ADD BYTE PTR DS:[EAX],AL
00405EDC   0000             ADD BYTE PTR DS:[EAX],AL
00405EDE   0000             ADD BYTE PTR DS:[EAX],AL
00405EE0   0000             ADD BYTE PTR DS:[EAX],AL
00405EE2   0000             ADD BYTE PTR DS:[EAX],AL
00405EE4   0000             ADD BYTE PTR DS:[EAX],AL
00405EE6   0000             ADD BYTE PTR DS:[EAX],AL
00405EE8   0000             ADD BYTE PTR DS:[EAX],AL
00405EEA   0000             ADD BYTE PTR DS:[EAX],AL
00405EEC   0000             ADD BYTE PTR DS:[EAX],AL
00405EEE   0000             ADD BYTE PTR DS:[EAX],AL
00405EF0   0000             ADD BYTE PTR DS:[EAX],AL
00405EF2   0000             ADD BYTE PTR DS:[EAX],AL
00405EF4   0000             ADD BYTE PTR DS:[EAX],AL
00405EF6   0000             ADD BYTE PTR DS:[EAX],AL
00405EF8   0000             ADD BYTE PTR DS:[EAX],AL
00405EFA   0000             ADD BYTE PTR DS:[EAX],AL
00405EFC   0000             ADD BYTE PTR DS:[EAX],AL
00405EFE   0000             ADD BYTE PTR DS:[EAX],AL
00405F00   0000             ADD BYTE PTR DS:[EAX],AL
00405F02   0000             ADD BYTE PTR DS:[EAX],AL
00405F04   0000             ADD BYTE PTR DS:[EAX],AL
00405F06   0000             ADD BYTE PTR DS:[EAX],AL
00405F08   0000             ADD BYTE PTR DS:[EAX],AL
00405F0A   0000             ADD BYTE PTR DS:[EAX],AL
00405F0C   0000             ADD BYTE PTR DS:[EAX],AL
00405F0E   0000             ADD BYTE PTR DS:[EAX],AL
00405F10   0000             ADD BYTE PTR DS:[EAX],AL
00405F12   0000             ADD BYTE PTR DS:[EAX],AL
00405F14   0000             ADD BYTE PTR DS:[EAX],AL
00405F16   0000             ADD BYTE PTR DS:[EAX],AL
00405F18   0000             ADD BYTE PTR DS:[EAX],AL
00405F1A   0000             ADD BYTE PTR DS:[EAX],AL
00405F1C   0000             ADD BYTE PTR DS:[EAX],AL
00405F1E   0000             ADD BYTE PTR DS:[EAX],AL
00405F20   0000             ADD BYTE PTR DS:[EAX],AL
00405F22   0000             ADD BYTE PTR DS:[EAX],AL
00405F24   0000             ADD BYTE PTR DS:[EAX],AL
00405F26   0000             ADD BYTE PTR DS:[EAX],AL
00405F28   0000             ADD BYTE PTR DS:[EAX],AL
00405F2A   0000             ADD BYTE PTR DS:[EAX],AL
00405F2C   0000             ADD BYTE PTR DS:[EAX],AL
00405F2E   0000             ADD BYTE PTR DS:[EAX],AL
00405F30   0000             ADD BYTE PTR DS:[EAX],AL
00405F32   0000             ADD BYTE PTR DS:[EAX],AL
00405F34   0000             ADD BYTE PTR DS:[EAX],AL
00405F36   0000             ADD BYTE PTR DS:[EAX],AL
00405F38   0000             ADD BYTE PTR DS:[EAX],AL
00405F3A   0000             ADD BYTE PTR DS:[EAX],AL
00405F3C   0000             ADD BYTE PTR DS:[EAX],AL
00405F3E   0000             ADD BYTE PTR DS:[EAX],AL
00405F40   0000             ADD BYTE PTR DS:[EAX],AL
00405F42   0000             ADD BYTE PTR DS:[EAX],AL
00405F44   0000             ADD BYTE PTR DS:[EAX],AL
00405F46   0000             ADD BYTE PTR DS:[EAX],AL
00405F48   0000             ADD BYTE PTR DS:[EAX],AL
00405F4A   0000             ADD BYTE PTR DS:[EAX],AL
00405F4C   0000             ADD BYTE PTR DS:[EAX],AL
00405F4E   0000             ADD BYTE PTR DS:[EAX],AL
00405F50   0000             ADD BYTE PTR DS:[EAX],AL
00405F52   0000             ADD BYTE PTR DS:[EAX],AL
00405F54   0000             ADD BYTE PTR DS:[EAX],AL
00405F56   0000             ADD BYTE PTR DS:[EAX],AL
00405F58   0000             ADD BYTE PTR DS:[EAX],AL
00405F5A   0000             ADD BYTE PTR DS:[EAX],AL
00405F5C   0000             ADD BYTE PTR DS:[EAX],AL
00405F5E   0000             ADD BYTE PTR DS:[EAX],AL
00405F60   0000             ADD BYTE PTR DS:[EAX],AL
00405F62   0000             ADD BYTE PTR DS:[EAX],AL
00405F64   0000             ADD BYTE PTR DS:[EAX],AL
00405F66   0000             ADD BYTE PTR DS:[EAX],AL
00405F68   0000             ADD BYTE PTR DS:[EAX],AL
00405F6A   0000             ADD BYTE PTR DS:[EAX],AL
00405F6C   0000             ADD BYTE PTR DS:[EAX],AL
00405F6E   0000             ADD BYTE PTR DS:[EAX],AL
00405F70   0000             ADD BYTE PTR DS:[EAX],AL
00405F72   0000             ADD BYTE PTR DS:[EAX],AL
00405F74   0000             ADD BYTE PTR DS:[EAX],AL
00405F76   0000             ADD BYTE PTR DS:[EAX],AL
00405F78   0000             ADD BYTE PTR DS:[EAX],AL
00405F7A   0000             ADD BYTE PTR DS:[EAX],AL
00405F7C   0000             ADD BYTE PTR DS:[EAX],AL
00405F7E   0000             ADD BYTE PTR DS:[EAX],AL
00405F80   0000             ADD BYTE PTR DS:[EAX],AL
00405F82   0000             ADD BYTE PTR DS:[EAX],AL
00405F84   0000             ADD BYTE PTR DS:[EAX],AL
00405F86   0000             ADD BYTE PTR DS:[EAX],AL
00405F88   0000             ADD BYTE PTR DS:[EAX],AL
00405F8A   0000             ADD BYTE PTR DS:[EAX],AL
00405F8C   0000             ADD BYTE PTR DS:[EAX],AL
00405F8E   0000             ADD BYTE PTR DS:[EAX],AL
00405F90   0000             ADD BYTE PTR DS:[EAX],AL
00405F92   0000             ADD BYTE PTR DS:[EAX],AL
00405F94   0000             ADD BYTE PTR DS:[EAX],AL
00405F96   0000             ADD BYTE PTR DS:[EAX],AL
00405F98   0000             ADD BYTE PTR DS:[EAX],AL
00405F9A   0000             ADD BYTE PTR DS:[EAX],AL
00405F9C   0000             ADD BYTE PTR DS:[EAX],AL
00405F9E   0000             ADD BYTE PTR DS:[EAX],AL
00405FA0   0000             ADD BYTE PTR DS:[EAX],AL
00405FA2   0000             ADD BYTE PTR DS:[EAX],AL
00405FA4   0000             ADD BYTE PTR DS:[EAX],AL
00405FA6   0000             ADD BYTE PTR DS:[EAX],AL
00405FA8   0000             ADD BYTE PTR DS:[EAX],AL
00405FAA   0000             ADD BYTE PTR DS:[EAX],AL
00405FAC   0000             ADD BYTE PTR DS:[EAX],AL
00405FAE   0000             ADD BYTE PTR DS:[EAX],AL
00405FB0   0000             ADD BYTE PTR DS:[EAX],AL
00405FB2   0000             ADD BYTE PTR DS:[EAX],AL
00405FB4   0000             ADD BYTE PTR DS:[EAX],AL
00405FB6   0000             ADD BYTE PTR DS:[EAX],AL
00405FB8   0000             ADD BYTE PTR DS:[EAX],AL
00405FBA   0000             ADD BYTE PTR DS:[EAX],AL
00405FBC   0000             ADD BYTE PTR DS:[EAX],AL
00405FBE   0000             ADD BYTE PTR DS:[EAX],AL
00405FC0   0000             ADD BYTE PTR DS:[EAX],AL
00405FC2   0000             ADD BYTE PTR DS:[EAX],AL
00405FC4   0000             ADD BYTE PTR DS:[EAX],AL
00405FC6   0000             ADD BYTE PTR DS:[EAX],AL
00405FC8   0000             ADD BYTE PTR DS:[EAX],AL
00405FCA   0000             ADD BYTE PTR DS:[EAX],AL
00405FCC   0000             ADD BYTE PTR DS:[EAX],AL
00405FCE   0000             ADD BYTE PTR DS:[EAX],AL
00405FD0   0000             ADD BYTE PTR DS:[EAX],AL
00405FD2   0000             ADD BYTE PTR DS:[EAX],AL
00405FD4   0000             ADD BYTE PTR DS:[EAX],AL
00405FD6   0000             ADD BYTE PTR DS:[EAX],AL
00405FD8   0000             ADD BYTE PTR DS:[EAX],AL
00405FDA   0000             ADD BYTE PTR DS:[EAX],AL
00405FDC   0000             ADD BYTE PTR DS:[EAX],AL
00405FDE   0000             ADD BYTE PTR DS:[EAX],AL
00405FE0   0000             ADD BYTE PTR DS:[EAX],AL
00405FE2   0000             ADD BYTE PTR DS:[EAX],AL
00405FE4   0000             ADD BYTE PTR DS:[EAX],AL
00405FE6   0000             ADD BYTE PTR DS:[EAX],AL
00405FE8   0000             ADD BYTE PTR DS:[EAX],AL
00405FEA   0000             ADD BYTE PTR DS:[EAX],AL
00405FEC   0000             ADD BYTE PTR DS:[EAX],AL
00405FEE   0000             ADD BYTE PTR DS:[EAX],AL
00405FF0   0000             ADD BYTE PTR DS:[EAX],AL
00405FF2   0000             ADD BYTE PTR DS:[EAX],AL
00405FF4   0000             ADD BYTE PTR DS:[EAX],AL
00405FF6   0000             ADD BYTE PTR DS:[EAX],AL
00405FF8   0000             ADD BYTE PTR DS:[EAX],AL
00405FFA   0000             ADD BYTE PTR DS:[EAX],AL
00405FFC   0000             ADD BYTE PTR DS:[EAX],AL
00405FFE   0000             ADD BYTE PTR DS:[EAX],AL

 